
main.elf:     file format elf32-littleriscv


Disassembly of section .text:

00000000 <entry>:
       0:	ff010113          	addi	sp,sp,-16
       4:	00112623          	sw	ra,12(sp)
       8:	00812423          	sw	s0,8(sp)
       c:	01010413          	addi	s0,sp,16
      10:	00120137          	lui	sp,0x120
      14:	ffc10113          	addi	sp,sp,-4 # 11fffc <_end+0x1f3fc>
      18:	639000ef          	jal	ra,e50 <init_io_mm>
      1c:	521000ef          	jal	ra,d3c <init_CSR>
      20:	018000ef          	jal	ra,38 <main>
      24:	00000013          	nop
      28:	00c12083          	lw	ra,12(sp)
      2c:	00812403          	lw	s0,8(sp)
      30:	01010113          	addi	sp,sp,16
      34:	00008067          	ret

00000038 <main>:
      38:	ff010113          	addi	sp,sp,-16
      3c:	00112623          	sw	ra,12(sp)
      40:	00812423          	sw	s0,8(sp)
      44:	01010413          	addi	s0,sp,16
      48:	00400593          	li	a1,4
      4c:	00100517          	auipc	a0,0x100
      50:	07450513          	addi	a0,a0,116 # 1000c0 <_etext+0xfd134>
      54:	298000ef          	jal	ra,2ec <print>
      58:	65d000ef          	jal	ra,eb4 <ui_mainloop>
      5c:	00000793          	li	a5,0
      60:	00078513          	mv	a0,a5
      64:	00c12083          	lw	ra,12(sp)
      68:	00812403          	lw	s0,8(sp)
      6c:	01010113          	addi	sp,sp,16
      70:	00008067          	ret

00000074 <wait_ms>:
      74:	fd010113          	addi	sp,sp,-48
      78:	02812623          	sw	s0,44(sp)
      7c:	03010413          	addi	s0,sp,48
      80:	fca42e23          	sw	a0,-36(s0)
      84:	00100797          	auipc	a5,0x100
      88:	38c78793          	addi	a5,a5,908 # 100410 <sys_time>
      8c:	0007a783          	lw	a5,0(a5)
      90:	fef42623          	sw	a5,-20(s0)
      94:	00000013          	nop
      98:	00100797          	auipc	a5,0x100
      9c:	37878793          	addi	a5,a5,888 # 100410 <sys_time>
      a0:	0007a703          	lw	a4,0(a5)
      a4:	fec42783          	lw	a5,-20(s0)
      a8:	40f707b3          	sub	a5,a4,a5
      ac:	fdc42703          	lw	a4,-36(s0)
      b0:	fee7e4e3          	bltu	a5,a4,98 <wait_ms+0x24>
      b4:	00000013          	nop
      b8:	00000013          	nop
      bc:	02c12403          	lw	s0,44(sp)
      c0:	03010113          	addi	sp,sp,48
      c4:	00008067          	ret

000000c8 <putc>:
      c8:	fd010113          	addi	sp,sp,-48
      cc:	02112623          	sw	ra,44(sp)
      d0:	02812423          	sw	s0,40(sp)
      d4:	03010413          	addi	s0,sp,48
      d8:	00050793          	mv	a5,a0
      dc:	00058713          	mv	a4,a1
      e0:	fcf40fa3          	sb	a5,-33(s0)
      e4:	00070793          	mv	a5,a4
      e8:	fcf40f23          	sb	a5,-34(s0)
      ec:	fdf44703          	lbu	a4,-33(s0)
      f0:	00a00793          	li	a5,10
      f4:	06f71e63          	bne	a4,a5,170 <putc+0xa8>
      f8:	00100797          	auipc	a5,0x100
      fc:	31c78793          	addi	a5,a5,796 # 100414 <monitor_write_cursor>
     100:	0007a783          	lw	a5,0(a5)
     104:	fc07f793          	andi	a5,a5,-64
     108:	04078713          	addi	a4,a5,64
     10c:	00100797          	auipc	a5,0x100
     110:	30878793          	addi	a5,a5,776 # 100414 <monitor_write_cursor>
     114:	00e7a023          	sw	a4,0(a5)
     118:	00100797          	auipc	a5,0x100
     11c:	2fc78793          	addi	a5,a5,764 # 100414 <monitor_write_cursor>
     120:	0007a703          	lw	a4,0(a5)
     124:	000017b7          	lui	a5,0x1
     128:	00f71863          	bne	a4,a5,138 <putc+0x70>
     12c:	00100797          	auipc	a5,0x100
     130:	2e878793          	addi	a5,a5,744 # 100414 <monitor_write_cursor>
     134:	0007a023          	sw	zero,0(a5)
     138:	00100797          	auipc	a5,0x100
     13c:	2f078793          	addi	a5,a5,752 # 100428 <vga_info>
     140:	0007a783          	lw	a5,0(a5)
     144:	01e78793          	addi	a5,a5,30
     148:	00679713          	slli	a4,a5,0x6
     14c:	000017b7          	lui	a5,0x1
     150:	fc078793          	addi	a5,a5,-64 # fc0 <ui_mainloop+0x10c>
     154:	00f77733          	and	a4,a4,a5
     158:	00100797          	auipc	a5,0x100
     15c:	2bc78793          	addi	a5,a5,700 # 100414 <monitor_write_cursor>
     160:	0007a783          	lw	a5,0(a5)
     164:	16f71863          	bne	a4,a5,2d4 <putc+0x20c>
     168:	520000ef          	jal	ra,688 <scroll_screen>
     16c:	1680006f          	j	2d4 <putc+0x20c>
     170:	fdf44703          	lbu	a4,-33(s0)
     174:	00900793          	li	a5,9
     178:	00f71c63          	bne	a4,a5,190 <putc+0xc8>
     17c:	00400593          	li	a1,4
     180:	00100517          	auipc	a0,0x100
     184:	e8050513          	addi	a0,a0,-384 # 100000 <_etext+0xfd074>
     188:	164000ef          	jal	ra,2ec <print>
     18c:	1480006f          	j	2d4 <putc+0x20c>
     190:	fdf44703          	lbu	a4,-33(s0)
     194:	00800793          	li	a5,8
     198:	06f71863          	bne	a4,a5,208 <putc+0x140>
     19c:	00100797          	auipc	a5,0x100
     1a0:	27c78793          	addi	a5,a5,636 # 100418 <output_front_cursor>
     1a4:	0007a703          	lw	a4,0(a5)
     1a8:	00100797          	auipc	a5,0x100
     1ac:	26c78793          	addi	a5,a5,620 # 100414 <monitor_write_cursor>
     1b0:	0007a783          	lw	a5,0(a5)
     1b4:	12f77063          	bgeu	a4,a5,2d4 <putc+0x20c>
     1b8:	00100797          	auipc	a5,0x100
     1bc:	25c78793          	addi	a5,a5,604 # 100414 <monitor_write_cursor>
     1c0:	0007a783          	lw	a5,0(a5)
     1c4:	fff78713          	addi	a4,a5,-1
     1c8:	00100797          	auipc	a5,0x100
     1cc:	24c78793          	addi	a5,a5,588 # 100414 <monitor_write_cursor>
     1d0:	00e7a023          	sw	a4,0(a5)
     1d4:	00100797          	auipc	a5,0x100
     1d8:	24078793          	addi	a5,a5,576 # 100414 <monitor_write_cursor>
     1dc:	0007a783          	lw	a5,0(a5)
     1e0:	fef42623          	sw	a5,-20(s0)
     1e4:	00300737          	lui	a4,0x300
     1e8:	fec42783          	lw	a5,-20(s0)
     1ec:	00f707b3          	add	a5,a4,a5
     1f0:	00078023          	sb	zero,0(a5)
     1f4:	00400737          	lui	a4,0x400
     1f8:	fec42783          	lw	a5,-20(s0)
     1fc:	00f707b3          	add	a5,a4,a5
     200:	00078023          	sb	zero,0(a5)
     204:	0d00006f          	j	2d4 <putc+0x20c>
     208:	00100797          	auipc	a5,0x100
     20c:	20c78793          	addi	a5,a5,524 # 100414 <monitor_write_cursor>
     210:	0007a783          	lw	a5,0(a5)
     214:	00178693          	addi	a3,a5,1
     218:	00100717          	auipc	a4,0x100
     21c:	1fc70713          	addi	a4,a4,508 # 100414 <monitor_write_cursor>
     220:	00d72023          	sw	a3,0(a4)
     224:	fdf44703          	lbu	a4,-33(s0)
     228:	fee405a3          	sb	a4,-21(s0)
     22c:	fde44703          	lbu	a4,-34(s0)
     230:	fee40523          	sb	a4,-22(s0)
     234:	fef42223          	sw	a5,-28(s0)
     238:	feb44703          	lbu	a4,-21(s0)
     23c:	01f00793          	li	a5,31
     240:	02e7fe63          	bgeu	a5,a4,27c <putc+0x1b4>
     244:	feb44703          	lbu	a4,-21(s0)
     248:	07e00793          	li	a5,126
     24c:	02e7e863          	bltu	a5,a4,27c <putc+0x1b4>
     250:	00300737          	lui	a4,0x300
     254:	fe442783          	lw	a5,-28(s0)
     258:	00f707b3          	add	a5,a4,a5
     25c:	feb44703          	lbu	a4,-21(s0)
     260:	00e78023          	sb	a4,0(a5)
     264:	00400737          	lui	a4,0x400
     268:	fe442783          	lw	a5,-28(s0)
     26c:	00f707b3          	add	a5,a4,a5
     270:	fea44703          	lbu	a4,-22(s0)
     274:	00e78023          	sb	a4,0(a5)
     278:	0080006f          	j	280 <putc+0x1b8>
     27c:	00000013          	nop
     280:	00100797          	auipc	a5,0x100
     284:	19478793          	addi	a5,a5,404 # 100414 <monitor_write_cursor>
     288:	0007a703          	lw	a4,0(a5)
     28c:	000017b7          	lui	a5,0x1
     290:	00f71863          	bne	a4,a5,2a0 <putc+0x1d8>
     294:	00100797          	auipc	a5,0x100
     298:	18078793          	addi	a5,a5,384 # 100414 <monitor_write_cursor>
     29c:	0007a023          	sw	zero,0(a5)
     2a0:	00100797          	auipc	a5,0x100
     2a4:	18878793          	addi	a5,a5,392 # 100428 <vga_info>
     2a8:	0007a783          	lw	a5,0(a5)
     2ac:	01e78793          	addi	a5,a5,30
     2b0:	00679713          	slli	a4,a5,0x6
     2b4:	000017b7          	lui	a5,0x1
     2b8:	fc078793          	addi	a5,a5,-64 # fc0 <ui_mainloop+0x10c>
     2bc:	00f77733          	and	a4,a4,a5
     2c0:	00100797          	auipc	a5,0x100
     2c4:	15478793          	addi	a5,a5,340 # 100414 <monitor_write_cursor>
     2c8:	0007a783          	lw	a5,0(a5)
     2cc:	00f71463          	bne	a4,a5,2d4 <putc+0x20c>
     2d0:	3b8000ef          	jal	ra,688 <scroll_screen>
     2d4:	508000ef          	jal	ra,7dc <_update_cursor>
     2d8:	00000013          	nop
     2dc:	02c12083          	lw	ra,44(sp)
     2e0:	02812403          	lw	s0,40(sp)
     2e4:	03010113          	addi	sp,sp,48
     2e8:	00008067          	ret

000002ec <print>:
     2ec:	fd010113          	addi	sp,sp,-48
     2f0:	02112623          	sw	ra,44(sp)
     2f4:	02812423          	sw	s0,40(sp)
     2f8:	03010413          	addi	s0,sp,48
     2fc:	fca42e23          	sw	a0,-36(s0)
     300:	00058793          	mv	a5,a1
     304:	fcf40da3          	sb	a5,-37(s0)
     308:	fdc42783          	lw	a5,-36(s0)
     30c:	0007c783          	lbu	a5,0(a5)
     310:	fef407a3          	sb	a5,-17(s0)
     314:	0300006f          	j	344 <print+0x58>
     318:	fdb44703          	lbu	a4,-37(s0)
     31c:	fef44783          	lbu	a5,-17(s0)
     320:	00070593          	mv	a1,a4
     324:	00078513          	mv	a0,a5
     328:	da1ff0ef          	jal	ra,c8 <putc>
     32c:	fdc42783          	lw	a5,-36(s0)
     330:	00178793          	addi	a5,a5,1
     334:	fcf42e23          	sw	a5,-36(s0)
     338:	fdc42783          	lw	a5,-36(s0)
     33c:	0007c783          	lbu	a5,0(a5)
     340:	fef407a3          	sb	a5,-17(s0)
     344:	fef44783          	lbu	a5,-17(s0)
     348:	fc0798e3          	bnez	a5,318 <print+0x2c>
     34c:	00000013          	nop
     350:	00000013          	nop
     354:	02c12083          	lw	ra,44(sp)
     358:	02812403          	lw	s0,40(sp)
     35c:	03010113          	addi	sp,sp,48
     360:	00008067          	ret

00000364 <printint>:
     364:	fd010113          	addi	sp,sp,-48
     368:	02112623          	sw	ra,44(sp)
     36c:	02812423          	sw	s0,40(sp)
     370:	03010413          	addi	s0,sp,48
     374:	fca42e23          	sw	a0,-36(s0)
     378:	00058793          	mv	a5,a1
     37c:	fcf40da3          	sb	a5,-37(s0)
     380:	fe040793          	addi	a5,s0,-32
     384:	00078593          	mv	a1,a5
     388:	fdc42503          	lw	a0,-36(s0)
     38c:	470010ef          	jal	ra,17fc <itoa>
     390:	fdb44703          	lbu	a4,-37(s0)
     394:	fe040793          	addi	a5,s0,-32
     398:	00070593          	mv	a1,a4
     39c:	00078513          	mv	a0,a5
     3a0:	f4dff0ef          	jal	ra,2ec <print>
     3a4:	00000013          	nop
     3a8:	02c12083          	lw	ra,44(sp)
     3ac:	02812403          	lw	s0,40(sp)
     3b0:	03010113          	addi	sp,sp,48
     3b4:	00008067          	ret

000003b8 <getc>:
     3b8:	fe010113          	addi	sp,sp,-32
     3bc:	00112e23          	sw	ra,28(sp)
     3c0:	00812c23          	sw	s0,24(sp)
     3c4:	02010413          	addi	s0,sp,32
     3c8:	00000013          	nop
     3cc:	00100797          	auipc	a5,0x100
     3d0:	05878793          	addi	a5,a5,88 # 100424 <kb_info>
     3d4:	0007c783          	lbu	a5,0(a5)
     3d8:	0ff7f793          	andi	a5,a5,255
     3dc:	06078663          	beqz	a5,448 <getc+0x90>
     3e0:	00100797          	auipc	a5,0x100
     3e4:	04478793          	addi	a5,a5,68 # 100424 <kb_info>
     3e8:	0007c783          	lbu	a5,0(a5)
     3ec:	0ff7f713          	andi	a4,a5,255
     3f0:	00100797          	auipc	a5,0x100
     3f4:	04078793          	addi	a5,a5,64 # 100430 <input_controller>
     3f8:	0007c783          	lbu	a5,0(a5)
     3fc:	02f71863          	bne	a4,a5,42c <getc+0x74>
     400:	00100797          	auipc	a5,0x100
     404:	01078793          	addi	a5,a5,16 # 100410 <sys_time>
     408:	0007a703          	lw	a4,0(a5)
     40c:	00100797          	auipc	a5,0x100
     410:	02478793          	addi	a5,a5,36 # 100430 <input_controller>
     414:	0047a783          	lw	a5,4(a5)
     418:	40f707b3          	sub	a5,a4,a5
     41c:	1f57b793          	sltiu	a5,a5,501
     420:	0017c793          	xori	a5,a5,1
     424:	0ff7f793          	andi	a5,a5,255
     428:	0240006f          	j	44c <getc+0x94>
     42c:	00100797          	auipc	a5,0x100
     430:	ff878793          	addi	a5,a5,-8 # 100424 <kb_info>
     434:	0007c783          	lbu	a5,0(a5)
     438:	0ff7f793          	andi	a5,a5,255
     43c:	00f037b3          	snez	a5,a5
     440:	0ff7f793          	andi	a5,a5,255
     444:	0080006f          	j	44c <getc+0x94>
     448:	00000793          	li	a5,0
     44c:	f80780e3          	beqz	a5,3cc <getc+0x14>
     450:	00100797          	auipc	a5,0x100
     454:	fd478793          	addi	a5,a5,-44 # 100424 <kb_info>
     458:	0007c783          	lbu	a5,0(a5)
     45c:	fef407a3          	sb	a5,-17(s0)
     460:	fef44783          	lbu	a5,-17(s0)
     464:	00079863          	bnez	a5,474 <getc+0xbc>
     468:	f51ff0ef          	jal	ra,3b8 <getc>
     46c:	00050793          	mv	a5,a0
     470:	0400006f          	j	4b0 <getc+0xf8>
     474:	00100797          	auipc	a5,0x100
     478:	fbc78793          	addi	a5,a5,-68 # 100430 <input_controller>
     47c:	fef44703          	lbu	a4,-17(s0)
     480:	00e78023          	sb	a4,0(a5)
     484:	00100797          	auipc	a5,0x100
     488:	f8c78793          	addi	a5,a5,-116 # 100410 <sys_time>
     48c:	0007a703          	lw	a4,0(a5)
     490:	00100797          	auipc	a5,0x100
     494:	fa078793          	addi	a5,a5,-96 # 100430 <input_controller>
     498:	00e7a223          	sw	a4,4(a5)
     49c:	fef44783          	lbu	a5,-17(s0)
     4a0:	00400593          	li	a1,4
     4a4:	00078513          	mv	a0,a5
     4a8:	c21ff0ef          	jal	ra,c8 <putc>
     4ac:	fef44783          	lbu	a5,-17(s0)
     4b0:	00078513          	mv	a0,a5
     4b4:	01c12083          	lw	ra,28(sp)
     4b8:	01812403          	lw	s0,24(sp)
     4bc:	02010113          	addi	sp,sp,32
     4c0:	00008067          	ret

000004c4 <getline>:
     4c4:	fd010113          	addi	sp,sp,-48
     4c8:	02112623          	sw	ra,44(sp)
     4cc:	02812423          	sw	s0,40(sp)
     4d0:	03010413          	addi	s0,sp,48
     4d4:	fca42e23          	sw	a0,-36(s0)
     4d8:	fe042623          	sw	zero,-20(s0)
     4dc:	0580006f          	j	534 <getline+0x70>
     4e0:	feb44703          	lbu	a4,-21(s0)
     4e4:	00800793          	li	a5,8
     4e8:	02f71663          	bne	a4,a5,514 <getline+0x50>
     4ec:	fec42783          	lw	a5,-20(s0)
     4f0:	04f05263          	blez	a5,534 <getline+0x70>
     4f4:	fec42783          	lw	a5,-20(s0)
     4f8:	fff78793          	addi	a5,a5,-1
     4fc:	fef42623          	sw	a5,-20(s0)
     500:	fec42783          	lw	a5,-20(s0)
     504:	fdc42703          	lw	a4,-36(s0)
     508:	00f707b3          	add	a5,a4,a5
     50c:	00078023          	sb	zero,0(a5)
     510:	0240006f          	j	534 <getline+0x70>
     514:	fec42783          	lw	a5,-20(s0)
     518:	00178713          	addi	a4,a5,1
     51c:	fee42623          	sw	a4,-20(s0)
     520:	00078713          	mv	a4,a5
     524:	fdc42783          	lw	a5,-36(s0)
     528:	00e787b3          	add	a5,a5,a4
     52c:	feb44703          	lbu	a4,-21(s0)
     530:	00e78023          	sb	a4,0(a5)
     534:	e85ff0ef          	jal	ra,3b8 <getc>
     538:	00050793          	mv	a5,a0
     53c:	fef405a3          	sb	a5,-21(s0)
     540:	feb44703          	lbu	a4,-21(s0)
     544:	00a00793          	li	a5,10
     548:	f8f71ce3          	bne	a4,a5,4e0 <getline+0x1c>
     54c:	fec42783          	lw	a5,-20(s0)
     550:	fdc42703          	lw	a4,-36(s0)
     554:	00f707b3          	add	a5,a4,a5
     558:	00078023          	sb	zero,0(a5)
     55c:	00000013          	nop
     560:	02c12083          	lw	ra,44(sp)
     564:	02812403          	lw	s0,40(sp)
     568:	03010113          	addi	sp,sp,48
     56c:	00008067          	ret

00000570 <is_ctrl_c>:
     570:	ff010113          	addi	sp,sp,-16
     574:	00812623          	sw	s0,12(sp)
     578:	01010413          	addi	s0,sp,16
     57c:	00100797          	auipc	a5,0x100
     580:	ea878793          	addi	a5,a5,-344 # 100424 <kb_info>
     584:	0007c783          	lbu	a5,0(a5)
     588:	0ff7f713          	andi	a4,a5,255
     58c:	06300793          	li	a5,99
     590:	02f71663          	bne	a4,a5,5bc <is_ctrl_c+0x4c>
     594:	00100797          	auipc	a5,0x100
     598:	e9078793          	addi	a5,a5,-368 # 100424 <kb_info>
     59c:	0017c783          	lbu	a5,1(a5)
     5a0:	0ff7f793          	andi	a5,a5,255
     5a4:	0017d793          	srli	a5,a5,0x1
     5a8:	0017f793          	andi	a5,a5,1
     5ac:	0ff7f793          	andi	a5,a5,255
     5b0:	00078663          	beqz	a5,5bc <is_ctrl_c+0x4c>
     5b4:	00100793          	li	a5,1
     5b8:	0080006f          	j	5c0 <is_ctrl_c+0x50>
     5bc:	00000793          	li	a5,0
     5c0:	0ff7f793          	andi	a5,a5,255
     5c4:	00078513          	mv	a0,a5
     5c8:	00c12403          	lw	s0,12(sp)
     5cc:	01010113          	addi	sp,sp,16
     5d0:	00008067          	ret

000005d4 <clear_all>:
     5d4:	fe010113          	addi	sp,sp,-32
     5d8:	00112e23          	sw	ra,28(sp)
     5dc:	00812c23          	sw	s0,24(sp)
     5e0:	02010413          	addi	s0,sp,32
     5e4:	fe042623          	sw	zero,-20(s0)
     5e8:	0400006f          	j	628 <clear_all+0x54>
     5ec:	fec42783          	lw	a5,-20(s0)
     5f0:	fef42423          	sw	a5,-24(s0)
     5f4:	00300737          	lui	a4,0x300
     5f8:	fe842783          	lw	a5,-24(s0)
     5fc:	00f707b3          	add	a5,a4,a5
     600:	02000713          	li	a4,32
     604:	00e78023          	sb	a4,0(a5)
     608:	00400737          	lui	a4,0x400
     60c:	fe842783          	lw	a5,-24(s0)
     610:	00f707b3          	add	a5,a4,a5
     614:	00400713          	li	a4,4
     618:	00e78023          	sb	a4,0(a5)
     61c:	fec42783          	lw	a5,-20(s0)
     620:	00178793          	addi	a5,a5,1
     624:	fef42623          	sw	a5,-20(s0)
     628:	fec42703          	lw	a4,-20(s0)
     62c:	77f00793          	li	a5,1919
     630:	fae7dee3          	bge	a5,a4,5ec <clear_all+0x18>
     634:	00100797          	auipc	a5,0x100
     638:	dec78793          	addi	a5,a5,-532 # 100420 <which_screen>
     63c:	00078023          	sb	zero,0(a5)
     640:	00100797          	auipc	a5,0x100
     644:	ddc78793          	addi	a5,a5,-548 # 10041c <buffer_write_cursor>
     648:	0007a023          	sw	zero,0(a5)
     64c:	00100797          	auipc	a5,0x100
     650:	dc878793          	addi	a5,a5,-568 # 100414 <monitor_write_cursor>
     654:	0007a023          	sw	zero,0(a5)
     658:	00100797          	auipc	a5,0x100
     65c:	dc078793          	addi	a5,a5,-576 # 100418 <output_front_cursor>
     660:	0007a023          	sw	zero,0(a5)
     664:	00100797          	auipc	a5,0x100
     668:	dc478793          	addi	a5,a5,-572 # 100428 <vga_info>
     66c:	0007a023          	sw	zero,0(a5)
     670:	16c000ef          	jal	ra,7dc <_update_cursor>
     674:	00000013          	nop
     678:	01c12083          	lw	ra,28(sp)
     67c:	01812403          	lw	s0,24(sp)
     680:	02010113          	addi	sp,sp,32
     684:	00008067          	ret

00000688 <scroll_screen>:
     688:	fe010113          	addi	sp,sp,-32
     68c:	00112e23          	sw	ra,28(sp)
     690:	00812c23          	sw	s0,24(sp)
     694:	02010413          	addi	s0,sp,32
     698:	00100797          	auipc	a5,0x100
     69c:	d9078793          	addi	a5,a5,-624 # 100428 <vga_info>
     6a0:	0007a783          	lw	a5,0(a5)
     6a4:	00178713          	addi	a4,a5,1
     6a8:	00100797          	auipc	a5,0x100
     6ac:	d8078793          	addi	a5,a5,-640 # 100428 <vga_info>
     6b0:	00e7a023          	sw	a4,0(a5)
     6b4:	00100797          	auipc	a5,0x100
     6b8:	d7478793          	addi	a5,a5,-652 # 100428 <vga_info>
     6bc:	0007a783          	lw	a5,0(a5)
     6c0:	03f7f713          	andi	a4,a5,63
     6c4:	00100797          	auipc	a5,0x100
     6c8:	d6478793          	addi	a5,a5,-668 # 100428 <vga_info>
     6cc:	00e7a023          	sw	a4,0(a5)
     6d0:	00100797          	auipc	a5,0x100
     6d4:	d4478793          	addi	a5,a5,-700 # 100414 <monitor_write_cursor>
     6d8:	0007a783          	lw	a5,0(a5)
     6dc:	fef42623          	sw	a5,-20(s0)
     6e0:	0400006f          	j	720 <scroll_screen+0x98>
     6e4:	fec42783          	lw	a5,-20(s0)
     6e8:	fef42423          	sw	a5,-24(s0)
     6ec:	00300737          	lui	a4,0x300
     6f0:	fe842783          	lw	a5,-24(s0)
     6f4:	00f707b3          	add	a5,a4,a5
     6f8:	02000713          	li	a4,32
     6fc:	00e78023          	sb	a4,0(a5)
     700:	00400737          	lui	a4,0x400
     704:	fe842783          	lw	a5,-24(s0)
     708:	00f707b3          	add	a5,a4,a5
     70c:	00400713          	li	a4,4
     710:	00e78023          	sb	a4,0(a5)
     714:	fec42783          	lw	a5,-20(s0)
     718:	00178793          	addi	a5,a5,1
     71c:	fef42623          	sw	a5,-20(s0)
     720:	00100797          	auipc	a5,0x100
     724:	cf478793          	addi	a5,a5,-780 # 100414 <monitor_write_cursor>
     728:	0007a783          	lw	a5,0(a5)
     72c:	04078713          	addi	a4,a5,64
     730:	fec42783          	lw	a5,-20(s0)
     734:	fae7e8e3          	bltu	a5,a4,6e4 <scroll_screen+0x5c>
     738:	0a4000ef          	jal	ra,7dc <_update_cursor>
     73c:	00000013          	nop
     740:	01c12083          	lw	ra,28(sp)
     744:	01812403          	lw	s0,24(sp)
     748:	02010113          	addi	sp,sp,32
     74c:	00008067          	ret

00000750 <clear_screen>:
     750:	fe010113          	addi	sp,sp,-32
     754:	00812e23          	sw	s0,28(sp)
     758:	02010413          	addi	s0,sp,32
     75c:	00100797          	auipc	a5,0x100
     760:	ccc78793          	addi	a5,a5,-820 # 100428 <vga_info>
     764:	0007a783          	lw	a5,0(a5)
     768:	00679793          	slli	a5,a5,0x6
     76c:	fef42623          	sw	a5,-20(s0)
     770:	fec42783          	lw	a5,-20(s0)
     774:	78078793          	addi	a5,a5,1920
     778:	fef42423          	sw	a5,-24(s0)
     77c:	0400006f          	j	7bc <clear_screen+0x6c>
     780:	fec42783          	lw	a5,-20(s0)
     784:	fef42223          	sw	a5,-28(s0)
     788:	00300737          	lui	a4,0x300
     78c:	fe442783          	lw	a5,-28(s0)
     790:	00f707b3          	add	a5,a4,a5
     794:	02000713          	li	a4,32
     798:	00e78023          	sb	a4,0(a5)
     79c:	00400737          	lui	a4,0x400
     7a0:	fe442783          	lw	a5,-28(s0)
     7a4:	00f707b3          	add	a5,a4,a5
     7a8:	00400713          	li	a4,4
     7ac:	00e78023          	sb	a4,0(a5)
     7b0:	fec42783          	lw	a5,-20(s0)
     7b4:	00178793          	addi	a5,a5,1
     7b8:	fef42623          	sw	a5,-20(s0)
     7bc:	fec42703          	lw	a4,-20(s0)
     7c0:	fe842783          	lw	a5,-24(s0)
     7c4:	faf74ee3          	blt	a4,a5,780 <clear_screen+0x30>
     7c8:	00000013          	nop
     7cc:	00000013          	nop
     7d0:	01c12403          	lw	s0,28(sp)
     7d4:	02010113          	addi	sp,sp,32
     7d8:	00008067          	ret

000007dc <_update_cursor>:
     7dc:	fe010113          	addi	sp,sp,-32
     7e0:	00112e23          	sw	ra,28(sp)
     7e4:	00812c23          	sw	s0,24(sp)
     7e8:	02010413          	addi	s0,sp,32
     7ec:	00100797          	auipc	a5,0x100
     7f0:	c2878793          	addi	a5,a5,-984 # 100414 <monitor_write_cursor>
     7f4:	0007a703          	lw	a4,0(a5)
     7f8:	00100797          	auipc	a5,0x100
     7fc:	c3078793          	addi	a5,a5,-976 # 100428 <vga_info>
     800:	0007a783          	lw	a5,0(a5)
     804:	00679793          	slli	a5,a5,0x6
     808:	40f707b3          	sub	a5,a4,a5
     80c:	fef42623          	sw	a5,-20(s0)
     810:	fec42783          	lw	a5,-20(s0)
     814:	0007da63          	bgez	a5,828 <_update_cursor+0x4c>
     818:	fec42703          	lw	a4,-20(s0)
     81c:	000017b7          	lui	a5,0x1
     820:	00f707b3          	add	a5,a4,a5
     824:	fef42623          	sw	a5,-20(s0)
     828:	fec42783          	lw	a5,-20(s0)
     82c:	fe440693          	addi	a3,s0,-28
     830:	fe840713          	addi	a4,s0,-24
     834:	00070613          	mv	a2,a4
     838:	04000593          	li	a1,64
     83c:	00078513          	mv	a0,a5
     840:	31c010ef          	jal	ra,1b5c <_udiv_mod>
     844:	fe842783          	lw	a5,-24(s0)
     848:	01079793          	slli	a5,a5,0x10
     84c:	0107d793          	srli	a5,a5,0x10
     850:	00479793          	slli	a5,a5,0x4
     854:	01079793          	slli	a5,a5,0x10
     858:	0107d793          	srli	a5,a5,0x10
     85c:	00178793          	addi	a5,a5,1 # 1001 <ui_mainloop+0x14d>
     860:	01079713          	slli	a4,a5,0x10
     864:	01075713          	srli	a4,a4,0x10
     868:	00100797          	auipc	a5,0x100
     86c:	bc078793          	addi	a5,a5,-1088 # 100428 <vga_info>
     870:	00e79323          	sh	a4,6(a5)
     874:	fe442703          	lw	a4,-28(s0)
     878:	03f00793          	li	a5,63
     87c:	04f70263          	beq	a4,a5,8c0 <_update_cursor+0xe4>
     880:	fe442783          	lw	a5,-28(s0)
     884:	01079793          	slli	a5,a5,0x10
     888:	0107d793          	srli	a5,a5,0x10
     88c:	00078713          	mv	a4,a5
     890:	00070793          	mv	a5,a4
     894:	00379793          	slli	a5,a5,0x3
     898:	00e787b3          	add	a5,a5,a4
     89c:	01079793          	slli	a5,a5,0x10
     8a0:	0107d793          	srli	a5,a5,0x10
     8a4:	00178793          	addi	a5,a5,1
     8a8:	01079713          	slli	a4,a5,0x10
     8ac:	01075713          	srli	a4,a4,0x10
     8b0:	00100797          	auipc	a5,0x100
     8b4:	b7878793          	addi	a5,a5,-1160 # 100428 <vga_info>
     8b8:	00e79223          	sh	a4,4(a5)
     8bc:	0140006f          	j	8d0 <_update_cursor+0xf4>
     8c0:	00100797          	auipc	a5,0x100
     8c4:	b6878793          	addi	a5,a5,-1176 # 100428 <vga_info>
     8c8:	00100713          	li	a4,1
     8cc:	00e79223          	sh	a4,4(a5)
     8d0:	00100797          	auipc	a5,0x100
     8d4:	9e078793          	addi	a5,a5,-1568 # 1002b0 <p_vga_info>
     8d8:	0007a783          	lw	a5,0(a5)
     8dc:	00100717          	auipc	a4,0x100
     8e0:	b4c70713          	addi	a4,a4,-1204 # 100428 <vga_info>
     8e4:	00072683          	lw	a3,0(a4)
     8e8:	00d7a023          	sw	a3,0(a5)
     8ec:	00472703          	lw	a4,4(a4)
     8f0:	00e7a223          	sw	a4,4(a5)
     8f4:	00000013          	nop
     8f8:	01c12083          	lw	ra,28(sp)
     8fc:	01812403          	lw	s0,24(sp)
     900:	02010113          	addi	sp,sp,32
     904:	00008067          	ret

00000908 <lock_output_front>:
     908:	ff010113          	addi	sp,sp,-16
     90c:	00812623          	sw	s0,12(sp)
     910:	01010413          	addi	s0,sp,16
     914:	00100797          	auipc	a5,0x100
     918:	b0078793          	addi	a5,a5,-1280 # 100414 <monitor_write_cursor>
     91c:	0007a703          	lw	a4,0(a5)
     920:	00100797          	auipc	a5,0x100
     924:	af878793          	addi	a5,a5,-1288 # 100418 <output_front_cursor>
     928:	00e7a023          	sw	a4,0(a5)
     92c:	00000013          	nop
     930:	00c12403          	lw	s0,12(sp)
     934:	01010113          	addi	sp,sp,16
     938:	00008067          	ret

0000093c <error>:
     93c:	fe010113          	addi	sp,sp,-32
     940:	00112e23          	sw	ra,28(sp)
     944:	00812c23          	sw	s0,24(sp)
     948:	02010413          	addi	s0,sp,32
     94c:	fea42623          	sw	a0,-20(s0)
     950:	00000593          	li	a1,0
     954:	000ff517          	auipc	a0,0xff
     958:	6b450513          	addi	a0,a0,1716 # 100008 <_etext+0xfd07c>
     95c:	991ff0ef          	jal	ra,2ec <print>
     960:	00400593          	li	a1,4
     964:	fec42503          	lw	a0,-20(s0)
     968:	985ff0ef          	jal	ra,2ec <print>
     96c:	00000013          	nop
     970:	01c12083          	lw	ra,28(sp)
     974:	01812403          	lw	s0,24(sp)
     978:	02010113          	addi	sp,sp,32
     97c:	00008067          	ret

00000980 <num2hexout>:
     980:	fe010113          	addi	sp,sp,-32
     984:	00812e23          	sw	s0,28(sp)
     988:	02010413          	addi	s0,sp,32
     98c:	fea42623          	sw	a0,-20(s0)
     990:	fec42703          	lw	a4,-20(s0)
     994:	00f00793          	li	a5,15
     998:	02e7e063          	bltu	a5,a4,9b8 <num2hexout+0x38>
     99c:	00100717          	auipc	a4,0x100
     9a0:	91870713          	addi	a4,a4,-1768 # 1002b4 <num2hexoutdict>
     9a4:	fec42783          	lw	a5,-20(s0)
     9a8:	00279793          	slli	a5,a5,0x2
     9ac:	00f707b3          	add	a5,a4,a5
     9b0:	0007a783          	lw	a5,0(a5)
     9b4:	0080006f          	j	9bc <num2hexout+0x3c>
     9b8:	05500793          	li	a5,85
     9bc:	00078513          	mv	a0,a5
     9c0:	01c12403          	lw	s0,28(sp)
     9c4:	02010113          	addi	sp,sp,32
     9c8:	00008067          	ret

000009cc <set_hex>:
     9cc:	fd010113          	addi	sp,sp,-48
     9d0:	02812623          	sw	s0,44(sp)
     9d4:	03010413          	addi	s0,sp,48
     9d8:	fca42e23          	sw	a0,-36(s0)
     9dc:	fcb42c23          	sw	a1,-40(s0)
     9e0:	00100797          	auipc	a5,0x100
     9e4:	91478793          	addi	a5,a5,-1772 # 1002f4 <HEX>
     9e8:	0007a703          	lw	a4,0(a5)
     9ec:	fd842783          	lw	a5,-40(s0)
     9f0:	00279793          	slli	a5,a5,0x2
     9f4:	00f70733          	add	a4,a4,a5
     9f8:	fdc42783          	lw	a5,-36(s0)
     9fc:	fef42623          	sw	a5,-20(s0)
     a00:	fec42683          	lw	a3,-20(s0)
     a04:	00f00793          	li	a5,15
     a08:	02d7e063          	bltu	a5,a3,a28 <set_hex+0x5c>
     a0c:	00100697          	auipc	a3,0x100
     a10:	8a868693          	addi	a3,a3,-1880 # 1002b4 <num2hexoutdict>
     a14:	fec42783          	lw	a5,-20(s0)
     a18:	00279793          	slli	a5,a5,0x2
     a1c:	00f687b3          	add	a5,a3,a5
     a20:	0007a783          	lw	a5,0(a5)
     a24:	0080006f          	j	a2c <set_hex+0x60>
     a28:	05500793          	li	a5,85
     a2c:	00f72023          	sw	a5,0(a4)
     a30:	00000013          	nop
     a34:	02c12403          	lw	s0,44(sp)
     a38:	03010113          	addi	sp,sp,48
     a3c:	00008067          	ret

00000a40 <set_ledr>:
     a40:	fd010113          	addi	sp,sp,-48
     a44:	02812623          	sw	s0,44(sp)
     a48:	03010413          	addi	s0,sp,48
     a4c:	fca42e23          	sw	a0,-36(s0)
     a50:	00058793          	mv	a5,a1
     a54:	fcf40da3          	sb	a5,-37(s0)
     a58:	00100797          	auipc	a5,0x100
     a5c:	8a078793          	addi	a5,a5,-1888 # 1002f8 <p_LEDR>
     a60:	0007a783          	lw	a5,0(a5)
     a64:	0007a783          	lw	a5,0(a5)
     a68:	fef42623          	sw	a5,-20(s0)
     a6c:	fdb44783          	lbu	a5,-37(s0)
     a70:	02078263          	beqz	a5,a94 <set_ledr+0x54>
     a74:	fdc42783          	lw	a5,-36(s0)
     a78:	00100713          	li	a4,1
     a7c:	00f717b3          	sll	a5,a4,a5
     a80:	00078713          	mv	a4,a5
     a84:	fec42783          	lw	a5,-20(s0)
     a88:	00e7e7b3          	or	a5,a5,a4
     a8c:	fef42623          	sw	a5,-20(s0)
     a90:	0240006f          	j	ab4 <set_ledr+0x74>
     a94:	fdc42783          	lw	a5,-36(s0)
     a98:	00100713          	li	a4,1
     a9c:	00f717b3          	sll	a5,a4,a5
     aa0:	fff7c793          	not	a5,a5
     aa4:	00078713          	mv	a4,a5
     aa8:	fec42783          	lw	a5,-20(s0)
     aac:	00e7f7b3          	and	a5,a5,a4
     ab0:	fef42623          	sw	a5,-20(s0)
     ab4:	fec42783          	lw	a5,-20(s0)
     ab8:	fef42423          	sw	a5,-24(s0)
     abc:	00100797          	auipc	a5,0x100
     ac0:	83c78793          	addi	a5,a5,-1988 # 1002f8 <p_LEDR>
     ac4:	0007a783          	lw	a5,0(a5)
     ac8:	fe842703          	lw	a4,-24(s0)
     acc:	3ff77713          	andi	a4,a4,1023
     ad0:	00e7a023          	sw	a4,0(a5)
     ad4:	00000013          	nop
     ad8:	00000013          	nop
     adc:	02c12403          	lw	s0,44(sp)
     ae0:	03010113          	addi	sp,sp,48
     ae4:	00008067          	ret

00000ae8 <set_ledr_all>:
     ae8:	fe010113          	addi	sp,sp,-32
     aec:	00812e23          	sw	s0,28(sp)
     af0:	02010413          	addi	s0,sp,32
     af4:	fea42623          	sw	a0,-20(s0)
     af8:	00100797          	auipc	a5,0x100
     afc:	80078793          	addi	a5,a5,-2048 # 1002f8 <p_LEDR>
     b00:	0007a783          	lw	a5,0(a5)
     b04:	fec42703          	lw	a4,-20(s0)
     b08:	3ff77713          	andi	a4,a4,1023
     b0c:	00e7a023          	sw	a4,0(a5)
     b10:	00000013          	nop
     b14:	01c12403          	lw	s0,28(sp)
     b18:	02010113          	addi	sp,sp,32
     b1c:	00008067          	ret

00000b20 <switch_mode>:
     b20:	fe010113          	addi	sp,sp,-32
     b24:	00112e23          	sw	ra,28(sp)
     b28:	00812c23          	sw	s0,24(sp)
     b2c:	02010413          	addi	s0,sp,32
     b30:	00050793          	mv	a5,a0
     b34:	fef407a3          	sb	a5,-17(s0)
     b38:	a9dff0ef          	jal	ra,5d4 <clear_all>
     b3c:	000ff797          	auipc	a5,0xff
     b40:	7cc78793          	addi	a5,a5,1996 # 100308 <mode>
     b44:	fef44703          	lbu	a4,-17(s0)
     b48:	00e78023          	sb	a4,0(a5)
     b4c:	fef44703          	lbu	a4,-17(s0)
     b50:	00100793          	li	a5,1
     b54:	04f71063          	bne	a4,a5,b94 <switch_mode+0x74>
     b58:	000017b7          	lui	a5,0x1
     b5c:	80078713          	addi	a4,a5,-2048 # 800 <_update_cursor+0x24>
     b60:	00100797          	auipc	a5,0x100
     b64:	8bc78793          	addi	a5,a5,-1860 # 10041c <buffer_write_cursor>
     b68:	00e7a023          	sw	a4,0(a5)
     b6c:	00100797          	auipc	a5,0x100
     b70:	8bc78793          	addi	a5,a5,-1860 # 100428 <vga_info>
     b74:	00001737          	lui	a4,0x1
     b78:	fff70713          	addi	a4,a4,-1 # fff <ui_mainloop+0x14b>
     b7c:	00e79223          	sh	a4,4(a5)
     b80:	00100797          	auipc	a5,0x100
     b84:	8a878793          	addi	a5,a5,-1880 # 100428 <vga_info>
     b88:	00001737          	lui	a4,0x1
     b8c:	fff70713          	addi	a4,a4,-1 # fff <ui_mainloop+0x14b>
     b90:	00e79323          	sh	a4,6(a5)
     b94:	00000013          	nop
     b98:	01c12083          	lw	ra,28(sp)
     b9c:	01812403          	lw	s0,24(sp)
     ba0:	02010113          	addi	sp,sp,32
     ba4:	00008067          	ret

00000ba8 <putc_buffer>:
     ba8:	fd010113          	addi	sp,sp,-48
     bac:	02812623          	sw	s0,44(sp)
     bb0:	03010413          	addi	s0,sp,48
     bb4:	00050793          	mv	a5,a0
     bb8:	00058713          	mv	a4,a1
     bbc:	fcf40fa3          	sb	a5,-33(s0)
     bc0:	00070793          	mv	a5,a4
     bc4:	fcf40f23          	sb	a5,-34(s0)
     bc8:	00100797          	auipc	a5,0x100
     bcc:	85478793          	addi	a5,a5,-1964 # 10041c <buffer_write_cursor>
     bd0:	0007a783          	lw	a5,0(a5)
     bd4:	00178693          	addi	a3,a5,1
     bd8:	00100717          	auipc	a4,0x100
     bdc:	84470713          	addi	a4,a4,-1980 # 10041c <buffer_write_cursor>
     be0:	00d72023          	sw	a3,0(a4)
     be4:	fdf44703          	lbu	a4,-33(s0)
     be8:	fee407a3          	sb	a4,-17(s0)
     bec:	fde44703          	lbu	a4,-34(s0)
     bf0:	fee40723          	sb	a4,-18(s0)
     bf4:	fef42423          	sw	a5,-24(s0)
     bf8:	fef44703          	lbu	a4,-17(s0)
     bfc:	01f00793          	li	a5,31
     c00:	02e7fe63          	bgeu	a5,a4,c3c <putc_buffer+0x94>
     c04:	fef44703          	lbu	a4,-17(s0)
     c08:	07e00793          	li	a5,126
     c0c:	02e7e863          	bltu	a5,a4,c3c <putc_buffer+0x94>
     c10:	00300737          	lui	a4,0x300
     c14:	fe842783          	lw	a5,-24(s0)
     c18:	00f707b3          	add	a5,a4,a5
     c1c:	fef44703          	lbu	a4,-17(s0)
     c20:	00e78023          	sb	a4,0(a5)
     c24:	00400737          	lui	a4,0x400
     c28:	fe842783          	lw	a5,-24(s0)
     c2c:	00f707b3          	add	a5,a4,a5
     c30:	fee44703          	lbu	a4,-18(s0)
     c34:	00e78023          	sb	a4,0(a5)
     c38:	0080006f          	j	c40 <putc_buffer+0x98>
     c3c:	00000013          	nop
     c40:	00000013          	nop
     c44:	02c12403          	lw	s0,44(sp)
     c48:	03010113          	addi	sp,sp,48
     c4c:	00008067          	ret

00000c50 <switch_screen>:
     c50:	ff010113          	addi	sp,sp,-16
     c54:	00812623          	sw	s0,12(sp)
     c58:	01010413          	addi	s0,sp,16
     c5c:	000ff797          	auipc	a5,0xff
     c60:	7c478793          	addi	a5,a5,1988 # 100420 <which_screen>
     c64:	0007c783          	lbu	a5,0(a5)
     c68:	00100713          	li	a4,1
     c6c:	40f707b3          	sub	a5,a4,a5
     c70:	0ff7f713          	andi	a4,a5,255
     c74:	000ff797          	auipc	a5,0xff
     c78:	7ac78793          	addi	a5,a5,1964 # 100420 <which_screen>
     c7c:	00e78023          	sb	a4,0(a5)
     c80:	000ff797          	auipc	a5,0xff
     c84:	7a078793          	addi	a5,a5,1952 # 100420 <which_screen>
     c88:	0007c783          	lbu	a5,0(a5)
     c8c:	00078863          	beqz	a5,c9c <switch_screen+0x4c>
     c90:	000017b7          	lui	a5,0x1
     c94:	80078793          	addi	a5,a5,-2048 # 800 <_update_cursor+0x24>
     c98:	0080006f          	j	ca0 <switch_screen+0x50>
     c9c:	00000793          	li	a5,0
     ca0:	000ff717          	auipc	a4,0xff
     ca4:	77470713          	addi	a4,a4,1908 # 100414 <monitor_write_cursor>
     ca8:	00f72023          	sw	a5,0(a4)
     cac:	000ff797          	auipc	a5,0xff
     cb0:	77478793          	addi	a5,a5,1908 # 100420 <which_screen>
     cb4:	0007c783          	lbu	a5,0(a5)
     cb8:	00078663          	beqz	a5,cc4 <switch_screen+0x74>
     cbc:	00000793          	li	a5,0
     cc0:	00c0006f          	j	ccc <switch_screen+0x7c>
     cc4:	000017b7          	lui	a5,0x1
     cc8:	80078793          	addi	a5,a5,-2048 # 800 <_update_cursor+0x24>
     ccc:	000ff717          	auipc	a4,0xff
     cd0:	75070713          	addi	a4,a4,1872 # 10041c <buffer_write_cursor>
     cd4:	00f72023          	sw	a5,0(a4)
     cd8:	000ff797          	auipc	a5,0xff
     cdc:	74878793          	addi	a5,a5,1864 # 100420 <which_screen>
     ce0:	0007c783          	lbu	a5,0(a5)
     ce4:	00078c63          	beqz	a5,cfc <switch_screen+0xac>
     ce8:	000ff797          	auipc	a5,0xff
     cec:	74078793          	addi	a5,a5,1856 # 100428 <vga_info>
     cf0:	02000713          	li	a4,32
     cf4:	00e7a023          	sw	a4,0(a5)
     cf8:	0100006f          	j	d08 <switch_screen+0xb8>
     cfc:	000ff797          	auipc	a5,0xff
     d00:	72c78793          	addi	a5,a5,1836 # 100428 <vga_info>
     d04:	0007a023          	sw	zero,0(a5)
     d08:	000ff797          	auipc	a5,0xff
     d0c:	5a878793          	addi	a5,a5,1448 # 1002b0 <p_vga_info>
     d10:	0007a783          	lw	a5,0(a5)
     d14:	000ff717          	auipc	a4,0xff
     d18:	71470713          	addi	a4,a4,1812 # 100428 <vga_info>
     d1c:	00072683          	lw	a3,0(a4)
     d20:	00d7a023          	sw	a3,0(a5)
     d24:	00472703          	lw	a4,4(a4)
     d28:	00e7a223          	sw	a4,4(a5)
     d2c:	00000013          	nop
     d30:	00c12403          	lw	s0,12(sp)
     d34:	01010113          	addi	sp,sp,16
     d38:	00008067          	ret

00000d3c <init_CSR>:
     d3c:	fe010113          	addi	sp,sp,-32
     d40:	00812e23          	sw	s0,28(sp)
     d44:	02010413          	addi	s0,sp,32
     d48:	00002797          	auipc	a5,0x2
     d4c:	1d078793          	addi	a5,a5,464 # 2f18 <int_handler_entrance>
     d50:	fef42623          	sw	a5,-20(s0)
     d54:	fec42783          	lw	a5,-20(s0)
     d58:	fe842703          	lw	a4,-24(s0)
     d5c:	00078713          	mv	a4,a5
     d60:	30571073          	csrw	mtvec,a4
     d64:	007007b7          	lui	a5,0x700
     d68:	34079073          	csrw	mscratch,a5
     d6c:	00800793          	li	a5,8
     d70:	30079073          	csrw	mstatus,a5
     d74:	00000013          	nop
     d78:	01c12403          	lw	s0,28(sp)
     d7c:	02010113          	addi	sp,sp,32
     d80:	00008067          	ret

00000d84 <irq_handler>:
     d84:	fd010113          	addi	sp,sp,-48
     d88:	02812623          	sw	s0,44(sp)
     d8c:	03010413          	addi	s0,sp,48
     d90:	fca42e23          	sw	a0,-36(s0)
     d94:	fdc42703          	lw	a4,-36(s0)
     d98:	800007b7          	lui	a5,0x80000
     d9c:	00778793          	addi	a5,a5,7 # 80000007 <_end+0x7feff407>
     da0:	0af71063          	bne	a4,a5,e40 <irq_handler+0xbc>
     da4:	000ff797          	auipc	a5,0xff
     da8:	66c78793          	addi	a5,a5,1644 # 100410 <sys_time>
     dac:	0007a783          	lw	a5,0(a5)
     db0:	00178713          	addi	a4,a5,1
     db4:	000ff797          	auipc	a5,0xff
     db8:	65c78793          	addi	a5,a5,1628 # 100410 <sys_time>
     dbc:	00e7a023          	sw	a4,0(a5)
     dc0:	000ff797          	auipc	a5,0xff
     dc4:	4ec78793          	addi	a5,a5,1260 # 1002ac <p_kb_info>
     dc8:	0007a783          	lw	a5,0(a5)
     dcc:	0007c703          	lbu	a4,0(a5)
     dd0:	fee40623          	sb	a4,-20(s0)
     dd4:	0017c783          	lbu	a5,1(a5)
     dd8:	fef406a3          	sb	a5,-19(s0)
     ddc:	000ff797          	auipc	a5,0xff
     de0:	64878793          	addi	a5,a5,1608 # 100424 <kb_info>
     de4:	0007c783          	lbu	a5,0(a5)
     de8:	0ff7f713          	andi	a4,a5,255
     dec:	fec44783          	lbu	a5,-20(s0)
     df0:	04f70863          	beq	a4,a5,e40 <irq_handler+0xbc>
     df4:	000ff797          	auipc	a5,0xff
     df8:	63078793          	addi	a5,a5,1584 # 100424 <kb_info>
     dfc:	0007c783          	lbu	a5,0(a5)
     e00:	0ff7f713          	andi	a4,a5,255
     e04:	000ff797          	auipc	a5,0xff
     e08:	62c78793          	addi	a5,a5,1580 # 100430 <input_controller>
     e0c:	00e78023          	sb	a4,0(a5)
     e10:	000ff797          	auipc	a5,0xff
     e14:	60078793          	addi	a5,a5,1536 # 100410 <sys_time>
     e18:	0007a703          	lw	a4,0(a5)
     e1c:	000ff797          	auipc	a5,0xff
     e20:	61478793          	addi	a5,a5,1556 # 100430 <input_controller>
     e24:	00e7a223          	sw	a4,4(a5)
     e28:	000ff797          	auipc	a5,0xff
     e2c:	5fc78793          	addi	a5,a5,1532 # 100424 <kb_info>
     e30:	fec44703          	lbu	a4,-20(s0)
     e34:	00e78023          	sb	a4,0(a5)
     e38:	fed44703          	lbu	a4,-19(s0)
     e3c:	00e780a3          	sb	a4,1(a5)
     e40:	00000013          	nop
     e44:	02c12403          	lw	s0,44(sp)
     e48:	03010113          	addi	sp,sp,48
     e4c:	00008067          	ret

00000e50 <init_io_mm>:
     e50:	ff010113          	addi	sp,sp,-16
     e54:	00812623          	sw	s0,12(sp)
     e58:	01010413          	addi	s0,sp,16
     e5c:	000ff797          	auipc	a5,0xff
     e60:	5cc78793          	addi	a5,a5,1484 # 100428 <vga_info>
     e64:	00100713          	li	a4,1
     e68:	00e79223          	sh	a4,4(a5)
     e6c:	000ff797          	auipc	a5,0xff
     e70:	5bc78793          	addi	a5,a5,1468 # 100428 <vga_info>
     e74:	00100713          	li	a4,1
     e78:	00e79323          	sh	a4,6(a5)
     e7c:	000ff797          	auipc	a5,0xff
     e80:	5ac78793          	addi	a5,a5,1452 # 100428 <vga_info>
     e84:	0007a023          	sw	zero,0(a5)
     e88:	002007b7          	lui	a5,0x200
     e8c:	000ff717          	auipc	a4,0xff
     e90:	59c70713          	addi	a4,a4,1436 # 100428 <vga_info>
     e94:	00072683          	lw	a3,0(a4)
     e98:	00d7a023          	sw	a3,0(a5) # 200000 <_end+0xff400>
     e9c:	00472703          	lw	a4,4(a4)
     ea0:	00e7a223          	sw	a4,4(a5)
     ea4:	00000013          	nop
     ea8:	00c12403          	lw	s0,12(sp)
     eac:	01010113          	addi	sp,sp,16
     eb0:	00008067          	ret

00000eb4 <ui_mainloop>:
     eb4:	fa010113          	addi	sp,sp,-96
     eb8:	04112e23          	sw	ra,92(sp)
     ebc:	04812c23          	sw	s0,88(sp)
     ec0:	06010413          	addi	s0,sp,96
     ec4:	00400593          	li	a1,4
     ec8:	000ff517          	auipc	a0,0xff
     ecc:	14850513          	addi	a0,a0,328 # 100010 <_etext+0xfd084>
     ed0:	c1cff0ef          	jal	ra,2ec <print>
     ed4:	a35ff0ef          	jal	ra,908 <lock_output_front>
     ed8:	fac40793          	addi	a5,s0,-84
     edc:	00078513          	mv	a0,a5
     ee0:	de4ff0ef          	jal	ra,4c4 <getline>
     ee4:	a25ff0ef          	jal	ra,908 <lock_output_front>
     ee8:	fac40793          	addi	a5,s0,-84
     eec:	000ff597          	auipc	a1,0xff
     ef0:	12858593          	addi	a1,a1,296 # 100014 <_etext+0xfd088>
     ef4:	00078513          	mv	a0,a5
     ef8:	6e8000ef          	jal	ra,15e0 <strtok>
     efc:	00050793          	mv	a5,a0
     f00:	fef42623          	sw	a5,-20(s0)
     f04:	000ff597          	auipc	a1,0xff
     f08:	11458593          	addi	a1,a1,276 # 100018 <_etext+0xfd08c>
     f0c:	fec42503          	lw	a0,-20(s0)
     f10:	5bc000ef          	jal	ra,14cc <strcmp>
     f14:	00050793          	mv	a5,a0
     f18:	00079663          	bnez	a5,f24 <ui_mainloop+0x70>
     f1c:	0f4000ef          	jal	ra,1010 <hello>
     f20:	fa5ff06f          	j	ec4 <ui_mainloop+0x10>
     f24:	000ff597          	auipc	a1,0xff
     f28:	0fc58593          	addi	a1,a1,252 # 100020 <_etext+0xfd094>
     f2c:	fec42503          	lw	a0,-20(s0)
     f30:	59c000ef          	jal	ra,14cc <strcmp>
     f34:	00050793          	mv	a5,a0
     f38:	00079663          	bnez	a5,f44 <ui_mainloop+0x90>
     f3c:	108000ef          	jal	ra,1044 <time>
     f40:	f85ff06f          	j	ec4 <ui_mainloop+0x10>
     f44:	000ff597          	auipc	a1,0xff
     f48:	0e458593          	addi	a1,a1,228 # 100028 <_etext+0xfd09c>
     f4c:	fec42503          	lw	a0,-20(s0)
     f50:	57c000ef          	jal	ra,14cc <strcmp>
     f54:	00050793          	mv	a5,a0
     f58:	00079663          	bnez	a5,f64 <ui_mainloop+0xb0>
     f5c:	158000ef          	jal	ra,10b4 <fib>
     f60:	f65ff06f          	j	ec4 <ui_mainloop+0x10>
     f64:	000ff597          	auipc	a1,0xff
     f68:	0c858593          	addi	a1,a1,200 # 10002c <_etext+0xfd0a0>
     f6c:	fec42503          	lw	a0,-20(s0)
     f70:	55c000ef          	jal	ra,14cc <strcmp>
     f74:	00050793          	mv	a5,a0
     f78:	00079663          	bnez	a5,f84 <ui_mainloop+0xd0>
     f7c:	1f8000ef          	jal	ra,1174 <calc>
     f80:	f45ff06f          	j	ec4 <ui_mainloop+0x10>
     f84:	000ff597          	auipc	a1,0xff
     f88:	0b058593          	addi	a1,a1,176 # 100034 <_etext+0xfd0a8>
     f8c:	fec42503          	lw	a0,-20(s0)
     f90:	53c000ef          	jal	ra,14cc <strcmp>
     f94:	00050793          	mv	a5,a0
     f98:	00079663          	bnez	a5,fa4 <ui_mainloop+0xf0>
     f9c:	268000ef          	jal	ra,1204 <marquee>
     fa0:	f25ff06f          	j	ec4 <ui_mainloop+0x10>
     fa4:	000ff597          	auipc	a1,0xff
     fa8:	09858593          	addi	a1,a1,152 # 10003c <_etext+0xfd0b0>
     fac:	fec42503          	lw	a0,-20(s0)
     fb0:	51c000ef          	jal	ra,14cc <strcmp>
     fb4:	00050793          	mv	a5,a0
     fb8:	00079663          	bnez	a5,fc4 <ui_mainloop+0x110>
     fbc:	350000ef          	jal	ra,130c <chardance>
     fc0:	f05ff06f          	j	ec4 <ui_mainloop+0x10>
     fc4:	000ff597          	auipc	a1,0xff
     fc8:	08458593          	addi	a1,a1,132 # 100048 <_etext+0xfd0bc>
     fcc:	fec42503          	lw	a0,-20(s0)
     fd0:	4fc000ef          	jal	ra,14cc <strcmp>
     fd4:	00050793          	mv	a5,a0
     fd8:	02078863          	beqz	a5,1008 <ui_mainloop+0x154>
     fdc:	000ff517          	auipc	a0,0xff
     fe0:	07050513          	addi	a0,a0,112 # 10004c <_etext+0xfd0c0>
     fe4:	959ff0ef          	jal	ra,93c <error>
     fe8:	00400593          	li	a1,4
     fec:	fec42503          	lw	a0,-20(s0)
     ff0:	afcff0ef          	jal	ra,2ec <print>
     ff4:	00400593          	li	a1,4
     ff8:	000ff517          	auipc	a0,0xff
     ffc:	06850513          	addi	a0,a0,104 # 100060 <_etext+0xfd0d4>
    1000:	aecff0ef          	jal	ra,2ec <print>
    1004:	ec1ff06f          	j	ec4 <ui_mainloop+0x10>
    1008:	00000013          	nop
    100c:	eb9ff06f          	j	ec4 <ui_mainloop+0x10>

00001010 <hello>:
    1010:	ff010113          	addi	sp,sp,-16
    1014:	00112623          	sw	ra,12(sp)
    1018:	00812423          	sw	s0,8(sp)
    101c:	01010413          	addi	s0,sp,16
    1020:	00400593          	li	a1,4
    1024:	000ff517          	auipc	a0,0xff
    1028:	04050513          	addi	a0,a0,64 # 100064 <_etext+0xfd0d8>
    102c:	ac0ff0ef          	jal	ra,2ec <print>
    1030:	00000013          	nop
    1034:	00c12083          	lw	ra,12(sp)
    1038:	00812403          	lw	s0,8(sp)
    103c:	01010113          	addi	sp,sp,16
    1040:	00008067          	ret

00001044 <time>:
    1044:	ff010113          	addi	sp,sp,-16
    1048:	00112623          	sw	ra,12(sp)
    104c:	00812423          	sw	s0,8(sp)
    1050:	01010413          	addi	s0,sp,16
    1054:	0340006f          	j	1088 <time+0x44>
    1058:	00400593          	li	a1,4
    105c:	000ff517          	auipc	a0,0xff
    1060:	01850513          	addi	a0,a0,24 # 100074 <_etext+0xfd0e8>
    1064:	a88ff0ef          	jal	ra,2ec <print>
    1068:	000ff797          	auipc	a5,0xff
    106c:	3a878793          	addi	a5,a5,936 # 100410 <sys_time>
    1070:	0007a783          	lw	a5,0(a5)
    1074:	00400593          	li	a1,4
    1078:	00078513          	mv	a0,a5
    107c:	ae8ff0ef          	jal	ra,364 <printint>
    1080:	00100513          	li	a0,1
    1084:	ff1fe0ef          	jal	ra,74 <wait_ms>
    1088:	ce8ff0ef          	jal	ra,570 <is_ctrl_c>
    108c:	00050793          	mv	a5,a0
    1090:	fc0784e3          	beqz	a5,1058 <time+0x14>
    1094:	00400593          	li	a1,4
    1098:	00a00513          	li	a0,10
    109c:	82cff0ef          	jal	ra,c8 <putc>
    10a0:	00000013          	nop
    10a4:	00c12083          	lw	ra,12(sp)
    10a8:	00812403          	lw	s0,8(sp)
    10ac:	01010113          	addi	sp,sp,16
    10b0:	00008067          	ret

000010b4 <fib>:
    10b4:	fe010113          	addi	sp,sp,-32
    10b8:	00112e23          	sw	ra,28(sp)
    10bc:	00812c23          	sw	s0,24(sp)
    10c0:	02010413          	addi	s0,sp,32
    10c4:	000ff597          	auipc	a1,0xff
    10c8:	f5058593          	addi	a1,a1,-176 # 100014 <_etext+0xfd088>
    10cc:	00000513          	li	a0,0
    10d0:	510000ef          	jal	ra,15e0 <strtok>
    10d4:	00050793          	mv	a5,a0
    10d8:	fef42223          	sw	a5,-28(s0)
    10dc:	fe442503          	lw	a0,-28(s0)
    10e0:	0ed000ef          	jal	ra,19cc <atoi>
    10e4:	fea42623          	sw	a0,-20(s0)
    10e8:	fec42783          	lw	a5,-20(s0)
    10ec:	0007da63          	bgez	a5,1100 <fib+0x4c>
    10f0:	000ff517          	auipc	a0,0xff
    10f4:	f9050513          	addi	a0,a0,-112 # 100080 <_etext+0xfd0f4>
    10f8:	845ff0ef          	jal	ra,93c <error>
    10fc:	0640006f          	j	1160 <fib+0xac>
    1100:	00100793          	li	a5,1
    1104:	fef42423          	sw	a5,-24(s0)
    1108:	0280006f          	j	1130 <fib+0x7c>
    110c:	fe842683          	lw	a3,-24(s0)
    1110:	fec42783          	lw	a5,-20(s0)
    1114:	fff78713          	addi	a4,a5,-1
    1118:	fee42623          	sw	a4,-20(s0)
    111c:	00078593          	mv	a1,a5
    1120:	00068513          	mv	a0,a3
    1124:	1cd000ef          	jal	ra,1af0 <__mulsi3>
    1128:	00050793          	mv	a5,a0
    112c:	fef42423          	sw	a5,-24(s0)
    1130:	fec42783          	lw	a5,-20(s0)
    1134:	fc079ce3          	bnez	a5,110c <fib+0x58>
    1138:	00400593          	li	a1,4
    113c:	000ff517          	auipc	a0,0xff
    1140:	f6450513          	addi	a0,a0,-156 # 1000a0 <_etext+0xfd114>
    1144:	9a8ff0ef          	jal	ra,2ec <print>
    1148:	00400593          	li	a1,4
    114c:	fe842503          	lw	a0,-24(s0)
    1150:	a14ff0ef          	jal	ra,364 <printint>
    1154:	00400593          	li	a1,4
    1158:	00a00513          	li	a0,10
    115c:	f6dfe0ef          	jal	ra,c8 <putc>
    1160:	00000013          	nop
    1164:	01c12083          	lw	ra,28(sp)
    1168:	01812403          	lw	s0,24(sp)
    116c:	02010113          	addi	sp,sp,32
    1170:	00008067          	ret

00001174 <calc>:
    1174:	fe010113          	addi	sp,sp,-32
    1178:	00112e23          	sw	ra,28(sp)
    117c:	00812c23          	sw	s0,24(sp)
    1180:	02010413          	addi	s0,sp,32
    1184:	000ff597          	auipc	a1,0xff
    1188:	ec458593          	addi	a1,a1,-316 # 100048 <_etext+0xfd0bc>
    118c:	00000513          	li	a0,0
    1190:	450000ef          	jal	ra,15e0 <strtok>
    1194:	00050793          	mv	a5,a0
    1198:	fef42623          	sw	a5,-20(s0)
    119c:	fe842583          	lw	a1,-24(s0)
    11a0:	fec42503          	lw	a0,-20(s0)
    11a4:	501010ef          	jal	ra,2ea4 <calc_expr>
    11a8:	fea42223          	sw	a0,-28(s0)
    11ac:	fe842783          	lw	a5,-24(s0)
    11b0:	0007c783          	lbu	a5,0(a5)
    11b4:	02078863          	beqz	a5,11e4 <calc+0x70>
    11b8:	00400593          	li	a1,4
    11bc:	000ff517          	auipc	a0,0xff
    11c0:	ee450513          	addi	a0,a0,-284 # 1000a0 <_etext+0xfd114>
    11c4:	928ff0ef          	jal	ra,2ec <print>
    11c8:	00400593          	li	a1,4
    11cc:	fe442503          	lw	a0,-28(s0)
    11d0:	994ff0ef          	jal	ra,364 <printint>
    11d4:	00400593          	li	a1,4
    11d8:	00a00513          	li	a0,10
    11dc:	eedfe0ef          	jal	ra,c8 <putc>
    11e0:	0100006f          	j	11f0 <calc+0x7c>
    11e4:	000ff517          	auipc	a0,0xff
    11e8:	ec850513          	addi	a0,a0,-312 # 1000ac <_etext+0xfd120>
    11ec:	f50ff0ef          	jal	ra,93c <error>
    11f0:	00000013          	nop
    11f4:	01c12083          	lw	ra,28(sp)
    11f8:	01812403          	lw	s0,24(sp)
    11fc:	02010113          	addi	sp,sp,32
    1200:	00008067          	ret

00001204 <marquee>:
    1204:	fd010113          	addi	sp,sp,-48
    1208:	02112623          	sw	ra,44(sp)
    120c:	02812423          	sw	s0,40(sp)
    1210:	03010413          	addi	s0,sp,48
    1214:	fe042623          	sw	zero,-20(s0)
    1218:	fe042423          	sw	zero,-24(s0)
    121c:	00f00793          	li	a5,15
    1220:	fcf42e23          	sw	a5,-36(s0)
    1224:	00900793          	li	a5,9
    1228:	fcf42c23          	sw	a5,-40(s0)
    122c:	0880006f          	j	12b4 <marquee+0xb0>
    1230:	fe042223          	sw	zero,-28(s0)
    1234:	0240006f          	j	1258 <marquee+0x54>
    1238:	fec42783          	lw	a5,-20(s0)
    123c:	fe442703          	lw	a4,-28(s0)
    1240:	00070593          	mv	a1,a4
    1244:	00078513          	mv	a0,a5
    1248:	f84ff0ef          	jal	ra,9cc <set_hex>
    124c:	fe442783          	lw	a5,-28(s0)
    1250:	00178793          	addi	a5,a5,1
    1254:	fef42223          	sw	a5,-28(s0)
    1258:	fe442703          	lw	a4,-28(s0)
    125c:	00500793          	li	a5,5
    1260:	fce7dce3          	bge	a5,a4,1238 <marquee+0x34>
    1264:	fec42783          	lw	a5,-20(s0)
    1268:	00178793          	addi	a5,a5,1
    126c:	fef42623          	sw	a5,-20(s0)
    1270:	fec42703          	lw	a4,-20(s0)
    1274:	fdc42783          	lw	a5,-36(s0)
    1278:	00f71463          	bne	a4,a5,1280 <marquee+0x7c>
    127c:	fe042623          	sw	zero,-20(s0)
    1280:	fe842783          	lw	a5,-24(s0)
    1284:	00178713          	addi	a4,a5,1
    1288:	fee42423          	sw	a4,-24(s0)
    128c:	00100713          	li	a4,1
    1290:	00f717b3          	sll	a5,a4,a5
    1294:	00078513          	mv	a0,a5
    1298:	851ff0ef          	jal	ra,ae8 <set_ledr_all>
    129c:	fe842703          	lw	a4,-24(s0)
    12a0:	fd842783          	lw	a5,-40(s0)
    12a4:	00f71463          	bne	a4,a5,12ac <marquee+0xa8>
    12a8:	fe042423          	sw	zero,-24(s0)
    12ac:	1f400513          	li	a0,500
    12b0:	dc5fe0ef          	jal	ra,74 <wait_ms>
    12b4:	abcff0ef          	jal	ra,570 <is_ctrl_c>
    12b8:	00050793          	mv	a5,a0
    12bc:	f6078ae3          	beqz	a5,1230 <marquee+0x2c>
    12c0:	fe042023          	sw	zero,-32(s0)
    12c4:	0200006f          	j	12e4 <marquee+0xe0>
    12c8:	fe042783          	lw	a5,-32(s0)
    12cc:	00078593          	mv	a1,a5
    12d0:	00000513          	li	a0,0
    12d4:	ef8ff0ef          	jal	ra,9cc <set_hex>
    12d8:	fe042783          	lw	a5,-32(s0)
    12dc:	00178793          	addi	a5,a5,1
    12e0:	fef42023          	sw	a5,-32(s0)
    12e4:	fe042703          	lw	a4,-32(s0)
    12e8:	00500793          	li	a5,5
    12ec:	fce7dee3          	bge	a5,a4,12c8 <marquee+0xc4>
    12f0:	00000513          	li	a0,0
    12f4:	ff4ff0ef          	jal	ra,ae8 <set_ledr_all>
    12f8:	00000013          	nop
    12fc:	02c12083          	lw	ra,44(sp)
    1300:	02812403          	lw	s0,40(sp)
    1304:	03010113          	addi	sp,sp,48
    1308:	00008067          	ret

0000130c <chardance>:
    130c:	fd010113          	addi	sp,sp,-48
    1310:	02112623          	sw	ra,44(sp)
    1314:	02812423          	sw	s0,40(sp)
    1318:	03010413          	addi	s0,sp,48
    131c:	00100513          	li	a0,1
    1320:	801ff0ef          	jal	ra,b20 <switch_mode>
    1324:	009007b7          	lui	a5,0x900
    1328:	fef42623          	sw	a5,-20(s0)
    132c:	fc042e23          	sw	zero,-36(s0)
    1330:	1280006f          	j	1458 <chardance+0x14c>
    1334:	000ff797          	auipc	a5,0xff
    1338:	0dc78793          	addi	a5,a5,220 # 100410 <sys_time>
    133c:	0007a783          	lw	a5,0(a5)
    1340:	fef42223          	sw	a5,-28(s0)
    1344:	fc042e23          	sw	zero,-36(s0)
    1348:	fec42783          	lw	a5,-20(s0)
    134c:	0007c783          	lbu	a5,0(a5)
    1350:	02078063          	beqz	a5,1370 <chardance+0x64>
    1354:	0100006f          	j	1364 <chardance+0x58>
    1358:	fec42783          	lw	a5,-20(s0)
    135c:	fff78793          	addi	a5,a5,-1
    1360:	fef42623          	sw	a5,-20(s0)
    1364:	fec42783          	lw	a5,-20(s0)
    1368:	0007c783          	lbu	a5,0(a5)
    136c:	fe0796e3          	bnez	a5,1358 <chardance+0x4c>
    1370:	fec42783          	lw	a5,-20(s0)
    1374:	00178793          	addi	a5,a5,1
    1378:	fef42623          	sw	a5,-20(s0)
    137c:	0a00006f          	j	141c <chardance+0x110>
    1380:	fec42783          	lw	a5,-20(s0)
    1384:	0007c783          	lbu	a5,0(a5)
    1388:	fcf40c23          	sb	a5,-40(s0)
    138c:	fd842783          	lw	a5,-40(s0)
    1390:	0077f793          	andi	a5,a5,7
    1394:	0ff7f793          	andi	a5,a5,255
    1398:	00078713          	mv	a4,a5
    139c:	000ff797          	auipc	a5,0xff
    13a0:	f6078793          	addi	a5,a5,-160 # 1002fc <type2char>
    13a4:	00e787b3          	add	a5,a5,a4
    13a8:	0007c783          	lbu	a5,0(a5)
    13ac:	fef401a3          	sb	a5,-29(s0)
    13b0:	fec42783          	lw	a5,-20(s0)
    13b4:	00178793          	addi	a5,a5,1
    13b8:	fef42623          	sw	a5,-20(s0)
    13bc:	fd842783          	lw	a5,-40(s0)
    13c0:	0037d793          	srli	a5,a5,0x3
    13c4:	01f7f793          	andi	a5,a5,31
    13c8:	0ff7f793          	andi	a5,a5,255
    13cc:	00078713          	mv	a4,a5
    13d0:	fdc42783          	lw	a5,-36(s0)
    13d4:	00f707b3          	add	a5,a4,a5
    13d8:	fcf42e23          	sw	a5,-36(s0)
    13dc:	fe042423          	sw	zero,-24(s0)
    13e0:	0200006f          	j	1400 <chardance+0xf4>
    13e4:	fe344783          	lbu	a5,-29(s0)
    13e8:	00400593          	li	a1,4
    13ec:	00078513          	mv	a0,a5
    13f0:	fb8ff0ef          	jal	ra,ba8 <putc_buffer>
    13f4:	fe842783          	lw	a5,-24(s0)
    13f8:	00178793          	addi	a5,a5,1
    13fc:	fef42423          	sw	a5,-24(s0)
    1400:	fd842783          	lw	a5,-40(s0)
    1404:	0037d793          	srli	a5,a5,0x3
    1408:	01f7f793          	andi	a5,a5,31
    140c:	0ff7f793          	andi	a5,a5,255
    1410:	00078713          	mv	a4,a5
    1414:	fe842783          	lw	a5,-24(s0)
    1418:	fce7c6e3          	blt	a5,a4,13e4 <chardance+0xd8>
    141c:	fdc42703          	lw	a4,-36(s0)
    1420:	77f00793          	li	a5,1919
    1424:	f4e7fee3          	bgeu	a5,a4,1380 <chardance+0x74>
    1428:	000ff797          	auipc	a5,0xff
    142c:	fe878793          	addi	a5,a5,-24 # 100410 <sys_time>
    1430:	0007a783          	lw	a5,0(a5)
    1434:	fe442703          	lw	a4,-28(s0)
    1438:	40f70733          	sub	a4,a4,a5
    143c:	000ff797          	auipc	a5,0xff
    1440:	ec878793          	addi	a5,a5,-312 # 100304 <ms_per_frame>
    1444:	0007a783          	lw	a5,0(a5)
    1448:	00f707b3          	add	a5,a4,a5
    144c:	00078513          	mv	a0,a5
    1450:	c25fe0ef          	jal	ra,74 <wait_ms>
    1454:	ffcff0ef          	jal	ra,c50 <switch_screen>
    1458:	918ff0ef          	jal	ra,570 <is_ctrl_c>
    145c:	00050793          	mv	a5,a0
    1460:	ec078ae3          	beqz	a5,1334 <chardance+0x28>
    1464:	00000513          	li	a0,0
    1468:	eb8ff0ef          	jal	ra,b20 <switch_mode>
    146c:	00000013          	nop
    1470:	02c12083          	lw	ra,44(sp)
    1474:	02812403          	lw	s0,40(sp)
    1478:	03010113          	addi	sp,sp,48
    147c:	00008067          	ret

00001480 <isdigit>:
    1480:	fe010113          	addi	sp,sp,-32
    1484:	00812e23          	sw	s0,28(sp)
    1488:	02010413          	addi	s0,sp,32
    148c:	00050793          	mv	a5,a0
    1490:	fef407a3          	sb	a5,-17(s0)
    1494:	fef44703          	lbu	a4,-17(s0)
    1498:	02f00793          	li	a5,47
    149c:	00e7fc63          	bgeu	a5,a4,14b4 <isdigit+0x34>
    14a0:	fef44703          	lbu	a4,-17(s0)
    14a4:	03900793          	li	a5,57
    14a8:	00e7e663          	bltu	a5,a4,14b4 <isdigit+0x34>
    14ac:	00100793          	li	a5,1
    14b0:	0080006f          	j	14b8 <isdigit+0x38>
    14b4:	00000793          	li	a5,0
    14b8:	0ff7f793          	andi	a5,a5,255
    14bc:	00078513          	mv	a0,a5
    14c0:	01c12403          	lw	s0,28(sp)
    14c4:	02010113          	addi	sp,sp,32
    14c8:	00008067          	ret

000014cc <strcmp>:
    14cc:	fd010113          	addi	sp,sp,-48
    14d0:	02812623          	sw	s0,44(sp)
    14d4:	03010413          	addi	s0,sp,48
    14d8:	fca42e23          	sw	a0,-36(s0)
    14dc:	fcb42c23          	sw	a1,-40(s0)
    14e0:	fe042623          	sw	zero,-20(s0)
    14e4:	01c0006f          	j	1500 <strcmp+0x34>
    14e8:	fdc42783          	lw	a5,-36(s0)
    14ec:	00178793          	addi	a5,a5,1
    14f0:	fcf42e23          	sw	a5,-36(s0)
    14f4:	fd842783          	lw	a5,-40(s0)
    14f8:	00178793          	addi	a5,a5,1
    14fc:	fcf42c23          	sw	a5,-40(s0)
    1500:	fdc42783          	lw	a5,-36(s0)
    1504:	0007c783          	lbu	a5,0(a5)
    1508:	00078713          	mv	a4,a5
    150c:	fd842783          	lw	a5,-40(s0)
    1510:	0007c783          	lbu	a5,0(a5)
    1514:	40f707b3          	sub	a5,a4,a5
    1518:	fef42623          	sw	a5,-20(s0)
    151c:	fec42783          	lw	a5,-20(s0)
    1520:	00079863          	bnez	a5,1530 <strcmp+0x64>
    1524:	fd842783          	lw	a5,-40(s0)
    1528:	0007c783          	lbu	a5,0(a5)
    152c:	fa079ee3          	bnez	a5,14e8 <strcmp+0x1c>
    1530:	fec42783          	lw	a5,-20(s0)
    1534:	0007d863          	bgez	a5,1544 <strcmp+0x78>
    1538:	fff00793          	li	a5,-1
    153c:	fef42623          	sw	a5,-20(s0)
    1540:	0140006f          	j	1554 <strcmp+0x88>
    1544:	fec42783          	lw	a5,-20(s0)
    1548:	00f05663          	blez	a5,1554 <strcmp+0x88>
    154c:	00100793          	li	a5,1
    1550:	fef42623          	sw	a5,-20(s0)
    1554:	fec42783          	lw	a5,-20(s0)
    1558:	00078513          	mv	a0,a5
    155c:	02c12403          	lw	s0,44(sp)
    1560:	03010113          	addi	sp,sp,48
    1564:	00008067          	ret

00001568 <strlen>:
    1568:	fd010113          	addi	sp,sp,-48
    156c:	02812623          	sw	s0,44(sp)
    1570:	03010413          	addi	s0,sp,48
    1574:	fca42e23          	sw	a0,-36(s0)
    1578:	fe042623          	sw	zero,-20(s0)
    157c:	0100006f          	j	158c <strlen+0x24>
    1580:	fec42783          	lw	a5,-20(s0)
    1584:	00178793          	addi	a5,a5,1
    1588:	fef42623          	sw	a5,-20(s0)
    158c:	fdc42783          	lw	a5,-36(s0)
    1590:	00178713          	addi	a4,a5,1
    1594:	fce42e23          	sw	a4,-36(s0)
    1598:	0007c783          	lbu	a5,0(a5)
    159c:	fe0792e3          	bnez	a5,1580 <strlen+0x18>
    15a0:	fec42783          	lw	a5,-20(s0)
    15a4:	00078513          	mv	a0,a5
    15a8:	02c12403          	lw	s0,44(sp)
    15ac:	03010113          	addi	sp,sp,48
    15b0:	00008067          	ret

000015b4 <get_pos>:
    15b4:	fe010113          	addi	sp,sp,-32
    15b8:	00812e23          	sw	s0,28(sp)
    15bc:	02010413          	addi	s0,sp,32
    15c0:	00050793          	mv	a5,a0
    15c4:	fef407a3          	sb	a5,-17(s0)
    15c8:	fef44783          	lbu	a5,-17(s0)
    15cc:	01f7f793          	andi	a5,a5,31
    15d0:	00078513          	mv	a0,a5
    15d4:	01c12403          	lw	s0,28(sp)
    15d8:	02010113          	addi	sp,sp,32
    15dc:	00008067          	ret

000015e0 <strtok>:
    15e0:	fb010113          	addi	sp,sp,-80
    15e4:	04812623          	sw	s0,76(sp)
    15e8:	05010413          	addi	s0,sp,80
    15ec:	faa42e23          	sw	a0,-68(s0)
    15f0:	fab42c23          	sw	a1,-72(s0)
    15f4:	fbc42783          	lw	a5,-68(s0)
    15f8:	00078663          	beqz	a5,1604 <strtok+0x24>
    15fc:	fbc42783          	lw	a5,-68(s0)
    1600:	0100006f          	j	1610 <strtok+0x30>
    1604:	000ff797          	auipc	a5,0xff
    1608:	d0878793          	addi	a5,a5,-760 # 10030c <ssave.0>
    160c:	0007a783          	lw	a5,0(a5)
    1610:	fef42623          	sw	a5,-20(s0)
    1614:	fc042023          	sw	zero,-64(s0)
    1618:	fc042223          	sw	zero,-60(s0)
    161c:	fc042423          	sw	zero,-56(s0)
    1620:	fc042623          	sw	zero,-52(s0)
    1624:	fc042823          	sw	zero,-48(s0)
    1628:	fc042a23          	sw	zero,-44(s0)
    162c:	fc042c23          	sw	zero,-40(s0)
    1630:	fc042e23          	sw	zero,-36(s0)
    1634:	0780006f          	j	16ac <strtok+0xcc>
    1638:	fb842783          	lw	a5,-72(s0)
    163c:	00178713          	addi	a4,a5,1
    1640:	fae42c23          	sw	a4,-72(s0)
    1644:	0007c783          	lbu	a5,0(a5)
    1648:	fef401a3          	sb	a5,-29(s0)
    164c:	fe344783          	lbu	a5,-29(s0)
    1650:	fef40123          	sb	a5,-30(s0)
    1654:	fe244783          	lbu	a5,-30(s0)
    1658:	01f7f793          	andi	a5,a5,31
    165c:	ff040713          	addi	a4,s0,-16
    1660:	00f70733          	add	a4,a4,a5
    1664:	fd074703          	lbu	a4,-48(a4)
    1668:	01871693          	slli	a3,a4,0x18
    166c:	4186d693          	srai	a3,a3,0x18
    1670:	fe344703          	lbu	a4,-29(s0)
    1674:	00575713          	srli	a4,a4,0x5
    1678:	0ff77713          	andi	a4,a4,255
    167c:	00070613          	mv	a2,a4
    1680:	00100713          	li	a4,1
    1684:	00c71733          	sll	a4,a4,a2
    1688:	01871713          	slli	a4,a4,0x18
    168c:	41875713          	srai	a4,a4,0x18
    1690:	00e6e733          	or	a4,a3,a4
    1694:	01871713          	slli	a4,a4,0x18
    1698:	41875713          	srai	a4,a4,0x18
    169c:	0ff77713          	andi	a4,a4,255
    16a0:	ff040693          	addi	a3,s0,-16
    16a4:	00f687b3          	add	a5,a3,a5
    16a8:	fce78823          	sb	a4,-48(a5)
    16ac:	fb842783          	lw	a5,-72(s0)
    16b0:	0007c783          	lbu	a5,0(a5)
    16b4:	f80792e3          	bnez	a5,1638 <strtok+0x58>
    16b8:	0100006f          	j	16c8 <strtok+0xe8>
    16bc:	fec42783          	lw	a5,-20(s0)
    16c0:	00178793          	addi	a5,a5,1
    16c4:	fef42623          	sw	a5,-20(s0)
    16c8:	fec42783          	lw	a5,-20(s0)
    16cc:	0007c783          	lbu	a5,0(a5)
    16d0:	04078263          	beqz	a5,1714 <strtok+0x134>
    16d4:	fec42783          	lw	a5,-20(s0)
    16d8:	0007c783          	lbu	a5,0(a5)
    16dc:	fef400a3          	sb	a5,-31(s0)
    16e0:	fe144783          	lbu	a5,-31(s0)
    16e4:	01f7f793          	andi	a5,a5,31
    16e8:	ff040713          	addi	a4,s0,-16
    16ec:	00f707b3          	add	a5,a4,a5
    16f0:	fd07c783          	lbu	a5,-48(a5)
    16f4:	00078713          	mv	a4,a5
    16f8:	fec42783          	lw	a5,-20(s0)
    16fc:	0007c783          	lbu	a5,0(a5)
    1700:	0057d793          	srli	a5,a5,0x5
    1704:	0ff7f793          	andi	a5,a5,255
    1708:	40f757b3          	sra	a5,a4,a5
    170c:	0017f793          	andi	a5,a5,1
    1710:	fa0796e3          	bnez	a5,16bc <strtok+0xdc>
    1714:	fec42783          	lw	a5,-20(s0)
    1718:	0007c783          	lbu	a5,0(a5)
    171c:	00079c63          	bnez	a5,1734 <strtok+0x154>
    1720:	000ff797          	auipc	a5,0xff
    1724:	bec78793          	addi	a5,a5,-1044 # 10030c <ssave.0>
    1728:	0007a023          	sw	zero,0(a5)
    172c:	00000793          	li	a5,0
    1730:	0bc0006f          	j	17ec <strtok+0x20c>
    1734:	fe042223          	sw	zero,-28(s0)
    1738:	0100006f          	j	1748 <strtok+0x168>
    173c:	fe442783          	lw	a5,-28(s0)
    1740:	00178793          	addi	a5,a5,1
    1744:	fef42223          	sw	a5,-28(s0)
    1748:	fe442783          	lw	a5,-28(s0)
    174c:	fec42703          	lw	a4,-20(s0)
    1750:	00f707b3          	add	a5,a4,a5
    1754:	0007c783          	lbu	a5,0(a5)
    1758:	04078a63          	beqz	a5,17ac <strtok+0x1cc>
    175c:	fe442783          	lw	a5,-28(s0)
    1760:	fec42703          	lw	a4,-20(s0)
    1764:	00f707b3          	add	a5,a4,a5
    1768:	0007c783          	lbu	a5,0(a5)
    176c:	fef40023          	sb	a5,-32(s0)
    1770:	fe044783          	lbu	a5,-32(s0)
    1774:	01f7f793          	andi	a5,a5,31
    1778:	ff040713          	addi	a4,s0,-16
    177c:	00f707b3          	add	a5,a4,a5
    1780:	fd07c783          	lbu	a5,-48(a5)
    1784:	00078693          	mv	a3,a5
    1788:	fe442783          	lw	a5,-28(s0)
    178c:	fec42703          	lw	a4,-20(s0)
    1790:	00f707b3          	add	a5,a4,a5
    1794:	0007c783          	lbu	a5,0(a5)
    1798:	0057d793          	srli	a5,a5,0x5
    179c:	0ff7f793          	andi	a5,a5,255
    17a0:	40f6d7b3          	sra	a5,a3,a5
    17a4:	0017f793          	andi	a5,a5,1
    17a8:	f8078ae3          	beqz	a5,173c <strtok+0x15c>
    17ac:	fe442783          	lw	a5,-28(s0)
    17b0:	fec42703          	lw	a4,-20(s0)
    17b4:	00f707b3          	add	a5,a4,a5
    17b8:	fef42423          	sw	a5,-24(s0)
    17bc:	fe842783          	lw	a5,-24(s0)
    17c0:	0007c783          	lbu	a5,0(a5)
    17c4:	00078a63          	beqz	a5,17d8 <strtok+0x1f8>
    17c8:	fe842783          	lw	a5,-24(s0)
    17cc:	00178713          	addi	a4,a5,1
    17d0:	fee42423          	sw	a4,-24(s0)
    17d4:	00078023          	sb	zero,0(a5)
    17d8:	000ff797          	auipc	a5,0xff
    17dc:	b3478793          	addi	a5,a5,-1228 # 10030c <ssave.0>
    17e0:	fe842703          	lw	a4,-24(s0)
    17e4:	00e7a023          	sw	a4,0(a5)
    17e8:	fec42783          	lw	a5,-20(s0)
    17ec:	00078513          	mv	a0,a5
    17f0:	04c12403          	lw	s0,76(sp)
    17f4:	05010113          	addi	sp,sp,80
    17f8:	00008067          	ret

000017fc <itoa>:
    17fc:	fc010113          	addi	sp,sp,-64
    1800:	02112e23          	sw	ra,60(sp)
    1804:	02812c23          	sw	s0,56(sp)
    1808:	04010413          	addi	s0,sp,64
    180c:	fca42623          	sw	a0,-52(s0)
    1810:	fcb42423          	sw	a1,-56(s0)
    1814:	fcc42783          	lw	a5,-52(s0)
    1818:	fef42223          	sw	a5,-28(s0)
    181c:	fe442783          	lw	a5,-28(s0)
    1820:	0007d863          	bgez	a5,1830 <itoa+0x34>
    1824:	fcc42783          	lw	a5,-52(s0)
    1828:	40f007b3          	neg	a5,a5
    182c:	fcf42623          	sw	a5,-52(s0)
    1830:	fe042623          	sw	zero,-20(s0)
    1834:	fcc42783          	lw	a5,-52(s0)
    1838:	fcf42e23          	sw	a5,-36(s0)
    183c:	fdc42783          	lw	a5,-36(s0)
    1840:	fcf42623          	sw	a5,-52(s0)
    1844:	fcc42783          	lw	a5,-52(s0)
    1848:	fd840693          	addi	a3,s0,-40
    184c:	fdc40713          	addi	a4,s0,-36
    1850:	00070613          	mv	a2,a4
    1854:	00a00593          	li	a1,10
    1858:	00078513          	mv	a0,a5
    185c:	300000ef          	jal	ra,1b5c <_udiv_mod>
    1860:	fd842783          	lw	a5,-40(s0)
    1864:	0ff7f713          	andi	a4,a5,255
    1868:	fec42783          	lw	a5,-20(s0)
    186c:	00178693          	addi	a3,a5,1
    1870:	fed42623          	sw	a3,-20(s0)
    1874:	00078693          	mv	a3,a5
    1878:	fc842783          	lw	a5,-56(s0)
    187c:	00d787b3          	add	a5,a5,a3
    1880:	03070713          	addi	a4,a4,48
    1884:	0ff77713          	andi	a4,a4,255
    1888:	00e78023          	sb	a4,0(a5)
    188c:	fdc42783          	lw	a5,-36(s0)
    1890:	fa0796e3          	bnez	a5,183c <itoa+0x40>
    1894:	fe442783          	lw	a5,-28(s0)
    1898:	0207d263          	bgez	a5,18bc <itoa+0xc0>
    189c:	fec42783          	lw	a5,-20(s0)
    18a0:	00178713          	addi	a4,a5,1
    18a4:	fee42623          	sw	a4,-20(s0)
    18a8:	00078713          	mv	a4,a5
    18ac:	fc842783          	lw	a5,-56(s0)
    18b0:	00e787b3          	add	a5,a5,a4
    18b4:	02d00713          	li	a4,45
    18b8:	00e78023          	sb	a4,0(a5)
    18bc:	fec42783          	lw	a5,-20(s0)
    18c0:	fc842703          	lw	a4,-56(s0)
    18c4:	00f707b3          	add	a5,a4,a5
    18c8:	00078023          	sb	zero,0(a5)
    18cc:	fec42783          	lw	a5,-20(s0)
    18d0:	fef42023          	sw	a5,-32(s0)
    18d4:	fe042783          	lw	a5,-32(s0)
    18d8:	fff78793          	addi	a5,a5,-1
    18dc:	fef42423          	sw	a5,-24(s0)
    18e0:	fe042623          	sw	zero,-20(s0)
    18e4:	0c40006f          	j	19a8 <itoa+0x1ac>
    18e8:	fe842783          	lw	a5,-24(s0)
    18ec:	fc842703          	lw	a4,-56(s0)
    18f0:	00f707b3          	add	a5,a4,a5
    18f4:	0007c683          	lbu	a3,0(a5)
    18f8:	fec42783          	lw	a5,-20(s0)
    18fc:	fc842703          	lw	a4,-56(s0)
    1900:	00f707b3          	add	a5,a4,a5
    1904:	0007c703          	lbu	a4,0(a5)
    1908:	fe842783          	lw	a5,-24(s0)
    190c:	fc842603          	lw	a2,-56(s0)
    1910:	00f607b3          	add	a5,a2,a5
    1914:	00e6c733          	xor	a4,a3,a4
    1918:	0ff77713          	andi	a4,a4,255
    191c:	00e78023          	sb	a4,0(a5)
    1920:	fec42783          	lw	a5,-20(s0)
    1924:	fc842703          	lw	a4,-56(s0)
    1928:	00f707b3          	add	a5,a4,a5
    192c:	0007c683          	lbu	a3,0(a5)
    1930:	fe842783          	lw	a5,-24(s0)
    1934:	fc842703          	lw	a4,-56(s0)
    1938:	00f707b3          	add	a5,a4,a5
    193c:	0007c703          	lbu	a4,0(a5)
    1940:	fec42783          	lw	a5,-20(s0)
    1944:	fc842603          	lw	a2,-56(s0)
    1948:	00f607b3          	add	a5,a2,a5
    194c:	00e6c733          	xor	a4,a3,a4
    1950:	0ff77713          	andi	a4,a4,255
    1954:	00e78023          	sb	a4,0(a5)
    1958:	fe842783          	lw	a5,-24(s0)
    195c:	fc842703          	lw	a4,-56(s0)
    1960:	00f707b3          	add	a5,a4,a5
    1964:	0007c683          	lbu	a3,0(a5)
    1968:	fec42783          	lw	a5,-20(s0)
    196c:	fc842703          	lw	a4,-56(s0)
    1970:	00f707b3          	add	a5,a4,a5
    1974:	0007c703          	lbu	a4,0(a5)
    1978:	fe842783          	lw	a5,-24(s0)
    197c:	fc842603          	lw	a2,-56(s0)
    1980:	00f607b3          	add	a5,a2,a5
    1984:	00e6c733          	xor	a4,a3,a4
    1988:	0ff77713          	andi	a4,a4,255
    198c:	00e78023          	sb	a4,0(a5)
    1990:	fe842783          	lw	a5,-24(s0)
    1994:	fff78793          	addi	a5,a5,-1
    1998:	fef42423          	sw	a5,-24(s0)
    199c:	fec42783          	lw	a5,-20(s0)
    19a0:	00178793          	addi	a5,a5,1
    19a4:	fef42623          	sw	a5,-20(s0)
    19a8:	fe842703          	lw	a4,-24(s0)
    19ac:	fec42783          	lw	a5,-20(s0)
    19b0:	f2e7cce3          	blt	a5,a4,18e8 <itoa+0xec>
    19b4:	00000013          	nop
    19b8:	00000013          	nop
    19bc:	03c12083          	lw	ra,60(sp)
    19c0:	03812403          	lw	s0,56(sp)
    19c4:	04010113          	addi	sp,sp,64
    19c8:	00008067          	ret

000019cc <atoi>:
    19cc:	fd010113          	addi	sp,sp,-48
    19d0:	02112623          	sw	ra,44(sp)
    19d4:	02812423          	sw	s0,40(sp)
    19d8:	03010413          	addi	s0,sp,48
    19dc:	fca42e23          	sw	a0,-36(s0)
    19e0:	fe042623          	sw	zero,-20(s0)
    19e4:	fdc42703          	lw	a4,-36(s0)
    19e8:	fec42783          	lw	a5,-20(s0)
    19ec:	00f707b3          	add	a5,a4,a5
    19f0:	0007c703          	lbu	a4,0(a5)
    19f4:	02d00793          	li	a5,45
    19f8:	00f71663          	bne	a4,a5,1a04 <atoi+0x38>
    19fc:	fff00793          	li	a5,-1
    1a00:	0080006f          	j	1a08 <atoi+0x3c>
    1a04:	00100793          	li	a5,1
    1a08:	fef42223          	sw	a5,-28(s0)
    1a0c:	fdc42703          	lw	a4,-36(s0)
    1a10:	fec42783          	lw	a5,-20(s0)
    1a14:	00f707b3          	add	a5,a4,a5
    1a18:	0007c703          	lbu	a4,0(a5)
    1a1c:	02b00793          	li	a5,43
    1a20:	00f70e63          	beq	a4,a5,1a3c <atoi+0x70>
    1a24:	fdc42703          	lw	a4,-36(s0)
    1a28:	fec42783          	lw	a5,-20(s0)
    1a2c:	00f707b3          	add	a5,a4,a5
    1a30:	0007c703          	lbu	a4,0(a5)
    1a34:	02d00793          	li	a5,45
    1a38:	00f71863          	bne	a4,a5,1a48 <atoi+0x7c>
    1a3c:	fec42783          	lw	a5,-20(s0)
    1a40:	00178793          	addi	a5,a5,1
    1a44:	fef42623          	sw	a5,-20(s0)
    1a48:	fe042423          	sw	zero,-24(s0)
    1a4c:	03c0006f          	j	1a88 <atoi+0xbc>
    1a50:	00a00593          	li	a1,10
    1a54:	fe842503          	lw	a0,-24(s0)
    1a58:	098000ef          	jal	ra,1af0 <__mulsi3>
    1a5c:	00050693          	mv	a3,a0
    1a60:	fdc42703          	lw	a4,-36(s0)
    1a64:	fec42783          	lw	a5,-20(s0)
    1a68:	00f707b3          	add	a5,a4,a5
    1a6c:	0007c783          	lbu	a5,0(a5)
    1a70:	00f687b3          	add	a5,a3,a5
    1a74:	fd078793          	addi	a5,a5,-48
    1a78:	fef42423          	sw	a5,-24(s0)
    1a7c:	fec42783          	lw	a5,-20(s0)
    1a80:	00178793          	addi	a5,a5,1
    1a84:	fef42623          	sw	a5,-20(s0)
    1a88:	fdc42703          	lw	a4,-36(s0)
    1a8c:	fec42783          	lw	a5,-20(s0)
    1a90:	00f707b3          	add	a5,a4,a5
    1a94:	0007c783          	lbu	a5,0(a5)
    1a98:	fef401a3          	sb	a5,-29(s0)
    1a9c:	fe344703          	lbu	a4,-29(s0)
    1aa0:	02f00793          	li	a5,47
    1aa4:	00e7fc63          	bgeu	a5,a4,1abc <atoi+0xf0>
    1aa8:	fe344703          	lbu	a4,-29(s0)
    1aac:	03900793          	li	a5,57
    1ab0:	00e7e663          	bltu	a5,a4,1abc <atoi+0xf0>
    1ab4:	00100793          	li	a5,1
    1ab8:	0080006f          	j	1ac0 <atoi+0xf4>
    1abc:	00000793          	li	a5,0
    1ac0:	0ff7f793          	andi	a5,a5,255
    1ac4:	f80796e3          	bnez	a5,1a50 <atoi+0x84>
    1ac8:	fe442783          	lw	a5,-28(s0)
    1acc:	fe842583          	lw	a1,-24(s0)
    1ad0:	00078513          	mv	a0,a5
    1ad4:	01c000ef          	jal	ra,1af0 <__mulsi3>
    1ad8:	00050793          	mv	a5,a0
    1adc:	00078513          	mv	a0,a5
    1ae0:	02c12083          	lw	ra,44(sp)
    1ae4:	02812403          	lw	s0,40(sp)
    1ae8:	03010113          	addi	sp,sp,48
    1aec:	00008067          	ret

00001af0 <__mulsi3>:
    1af0:	fd010113          	addi	sp,sp,-48
    1af4:	02812623          	sw	s0,44(sp)
    1af8:	03010413          	addi	s0,sp,48
    1afc:	fca42e23          	sw	a0,-36(s0)
    1b00:	fcb42c23          	sw	a1,-40(s0)
    1b04:	fe042623          	sw	zero,-20(s0)
    1b08:	0380006f          	j	1b40 <__mulsi3+0x50>
    1b0c:	fd842783          	lw	a5,-40(s0)
    1b10:	0017f793          	andi	a5,a5,1
    1b14:	00078a63          	beqz	a5,1b28 <__mulsi3+0x38>
    1b18:	fec42703          	lw	a4,-20(s0)
    1b1c:	fdc42783          	lw	a5,-36(s0)
    1b20:	00f707b3          	add	a5,a4,a5
    1b24:	fef42623          	sw	a5,-20(s0)
    1b28:	fdc42783          	lw	a5,-36(s0)
    1b2c:	00179793          	slli	a5,a5,0x1
    1b30:	fcf42e23          	sw	a5,-36(s0)
    1b34:	fd842783          	lw	a5,-40(s0)
    1b38:	0017d793          	srli	a5,a5,0x1
    1b3c:	fcf42c23          	sw	a5,-40(s0)
    1b40:	fd842783          	lw	a5,-40(s0)
    1b44:	fc0794e3          	bnez	a5,1b0c <__mulsi3+0x1c>
    1b48:	fec42783          	lw	a5,-20(s0)
    1b4c:	00078513          	mv	a0,a5
    1b50:	02c12403          	lw	s0,44(sp)
    1b54:	03010113          	addi	sp,sp,48
    1b58:	00008067          	ret

00001b5c <_udiv_mod>:
    1b5c:	fd010113          	addi	sp,sp,-48
    1b60:	02812623          	sw	s0,44(sp)
    1b64:	03010413          	addi	s0,sp,48
    1b68:	fca42e23          	sw	a0,-36(s0)
    1b6c:	fcb42c23          	sw	a1,-40(s0)
    1b70:	fcc42a23          	sw	a2,-44(s0)
    1b74:	fcd42823          	sw	a3,-48(s0)
    1b78:	00100793          	li	a5,1
    1b7c:	fef42623          	sw	a5,-20(s0)
    1b80:	fe042423          	sw	zero,-24(s0)
    1b84:	01c0006f          	j	1ba0 <_udiv_mod+0x44>
    1b88:	fd842783          	lw	a5,-40(s0)
    1b8c:	00179793          	slli	a5,a5,0x1
    1b90:	fcf42c23          	sw	a5,-40(s0)
    1b94:	fec42783          	lw	a5,-20(s0)
    1b98:	00179793          	slli	a5,a5,0x1
    1b9c:	fef42623          	sw	a5,-20(s0)
    1ba0:	fd842703          	lw	a4,-40(s0)
    1ba4:	fdc42783          	lw	a5,-36(s0)
    1ba8:	04f77e63          	bgeu	a4,a5,1c04 <_udiv_mod+0xa8>
    1bac:	fec42783          	lw	a5,-20(s0)
    1bb0:	04078a63          	beqz	a5,1c04 <_udiv_mod+0xa8>
    1bb4:	fd842783          	lw	a5,-40(s0)
    1bb8:	fc07d8e3          	bgez	a5,1b88 <_udiv_mod+0x2c>
    1bbc:	0480006f          	j	1c04 <_udiv_mod+0xa8>
    1bc0:	fdc42703          	lw	a4,-36(s0)
    1bc4:	fd842783          	lw	a5,-40(s0)
    1bc8:	02f76263          	bltu	a4,a5,1bec <_udiv_mod+0x90>
    1bcc:	fdc42703          	lw	a4,-36(s0)
    1bd0:	fd842783          	lw	a5,-40(s0)
    1bd4:	40f707b3          	sub	a5,a4,a5
    1bd8:	fcf42e23          	sw	a5,-36(s0)
    1bdc:	fe842703          	lw	a4,-24(s0)
    1be0:	fec42783          	lw	a5,-20(s0)
    1be4:	00f767b3          	or	a5,a4,a5
    1be8:	fef42423          	sw	a5,-24(s0)
    1bec:	fd842783          	lw	a5,-40(s0)
    1bf0:	0017d793          	srli	a5,a5,0x1
    1bf4:	fcf42c23          	sw	a5,-40(s0)
    1bf8:	fec42783          	lw	a5,-20(s0)
    1bfc:	0017d793          	srli	a5,a5,0x1
    1c00:	fef42623          	sw	a5,-20(s0)
    1c04:	fec42783          	lw	a5,-20(s0)
    1c08:	fa079ce3          	bnez	a5,1bc0 <_udiv_mod+0x64>
    1c0c:	fd442783          	lw	a5,-44(s0)
    1c10:	00078863          	beqz	a5,1c20 <_udiv_mod+0xc4>
    1c14:	fd442783          	lw	a5,-44(s0)
    1c18:	fe842703          	lw	a4,-24(s0)
    1c1c:	00e7a023          	sw	a4,0(a5)
    1c20:	fd042783          	lw	a5,-48(s0)
    1c24:	00078863          	beqz	a5,1c34 <_udiv_mod+0xd8>
    1c28:	fd042783          	lw	a5,-48(s0)
    1c2c:	fdc42703          	lw	a4,-36(s0)
    1c30:	00e7a023          	sw	a4,0(a5)
    1c34:	00000013          	nop
    1c38:	02c12403          	lw	s0,44(sp)
    1c3c:	03010113          	addi	sp,sp,48
    1c40:	00008067          	ret

00001c44 <__udivsi3>:
    1c44:	fd010113          	addi	sp,sp,-48
    1c48:	02112623          	sw	ra,44(sp)
    1c4c:	02812423          	sw	s0,40(sp)
    1c50:	03010413          	addi	s0,sp,48
    1c54:	fca42e23          	sw	a0,-36(s0)
    1c58:	fcb42c23          	sw	a1,-40(s0)
    1c5c:	fec40793          	addi	a5,s0,-20
    1c60:	00000693          	li	a3,0
    1c64:	00078613          	mv	a2,a5
    1c68:	fd842583          	lw	a1,-40(s0)
    1c6c:	fdc42503          	lw	a0,-36(s0)
    1c70:	eedff0ef          	jal	ra,1b5c <_udiv_mod>
    1c74:	fec42783          	lw	a5,-20(s0)
    1c78:	00078513          	mv	a0,a5
    1c7c:	02c12083          	lw	ra,44(sp)
    1c80:	02812403          	lw	s0,40(sp)
    1c84:	03010113          	addi	sp,sp,48
    1c88:	00008067          	ret

00001c8c <make_token>:
    1c8c:	fd010113          	addi	sp,sp,-48
    1c90:	02112623          	sw	ra,44(sp)
    1c94:	02812423          	sw	s0,40(sp)
    1c98:	02912223          	sw	s1,36(sp)
    1c9c:	03010413          	addi	s0,sp,48
    1ca0:	fca42e23          	sw	a0,-36(s0)
    1ca4:	000fe797          	auipc	a5,0xfe
    1ca8:	79478793          	addi	a5,a5,1940 # 100438 <nr_token>
    1cac:	0007a023          	sw	zero,0(a5)
    1cb0:	000fe597          	auipc	a1,0xfe
    1cb4:	42058593          	addi	a1,a1,1056 # 1000d0 <_etext+0xfd144>
    1cb8:	fdc42503          	lw	a0,-36(s0)
    1cbc:	925ff0ef          	jal	ra,15e0 <strtok>
    1cc0:	00050793          	mv	a5,a0
    1cc4:	fef42623          	sw	a5,-20(s0)
    1cc8:	6840006f          	j	234c <make_token+0x6c0>
    1ccc:	000fe597          	auipc	a1,0xfe
    1cd0:	40858593          	addi	a1,a1,1032 # 1000d4 <_etext+0xfd148>
    1cd4:	fec42503          	lw	a0,-20(s0)
    1cd8:	ff4ff0ef          	jal	ra,14cc <strcmp>
    1cdc:	00050793          	mv	a5,a0
    1ce0:	02079c63          	bnez	a5,1d18 <make_token+0x8c>
    1ce4:	000fe797          	auipc	a5,0xfe
    1ce8:	75478793          	addi	a5,a5,1876 # 100438 <nr_token>
    1cec:	0007a783          	lw	a5,0(a5)
    1cf0:	00178693          	addi	a3,a5,1
    1cf4:	000fe717          	auipc	a4,0xfe
    1cf8:	74470713          	addi	a4,a4,1860 # 100438 <nr_token>
    1cfc:	00d72023          	sw	a3,0(a4)
    1d00:	000fe717          	auipc	a4,0xfe
    1d04:	61070713          	addi	a4,a4,1552 # 100310 <tokens>
    1d08:	00379793          	slli	a5,a5,0x3
    1d0c:	00f707b3          	add	a5,a4,a5
    1d10:	0007a023          	sw	zero,0(a5)
    1d14:	6200006f          	j	2334 <make_token+0x6a8>
    1d18:	000fe597          	auipc	a1,0xfe
    1d1c:	3c058593          	addi	a1,a1,960 # 1000d8 <_etext+0xfd14c>
    1d20:	fec42503          	lw	a0,-20(s0)
    1d24:	fa8ff0ef          	jal	ra,14cc <strcmp>
    1d28:	00050793          	mv	a5,a0
    1d2c:	02079e63          	bnez	a5,1d68 <make_token+0xdc>
    1d30:	000fe797          	auipc	a5,0xfe
    1d34:	70878793          	addi	a5,a5,1800 # 100438 <nr_token>
    1d38:	0007a783          	lw	a5,0(a5)
    1d3c:	00178693          	addi	a3,a5,1
    1d40:	000fe717          	auipc	a4,0xfe
    1d44:	6f870713          	addi	a4,a4,1784 # 100438 <nr_token>
    1d48:	00d72023          	sw	a3,0(a4)
    1d4c:	000fe717          	auipc	a4,0xfe
    1d50:	5c470713          	addi	a4,a4,1476 # 100310 <tokens>
    1d54:	00379793          	slli	a5,a5,0x3
    1d58:	00f707b3          	add	a5,a4,a5
    1d5c:	00100713          	li	a4,1
    1d60:	00e7a023          	sw	a4,0(a5)
    1d64:	5d00006f          	j	2334 <make_token+0x6a8>
    1d68:	fec42783          	lw	a5,-20(s0)
    1d6c:	fef42423          	sw	a5,-24(s0)
    1d70:	00100793          	li	a5,1
    1d74:	fef403a3          	sb	a5,-25(s0)
    1d78:	03c0006f          	j	1db4 <make_token+0x128>
    1d7c:	fe842783          	lw	a5,-24(s0)
    1d80:	0007c703          	lbu	a4,0(a5)
    1d84:	02f00793          	li	a5,47
    1d88:	02e7f263          	bgeu	a5,a4,1dac <make_token+0x120>
    1d8c:	fe842783          	lw	a5,-24(s0)
    1d90:	0007c703          	lbu	a4,0(a5)
    1d94:	03900793          	li	a5,57
    1d98:	00e7ea63          	bltu	a5,a4,1dac <make_token+0x120>
    1d9c:	fe842783          	lw	a5,-24(s0)
    1da0:	00178793          	addi	a5,a5,1
    1da4:	fef42423          	sw	a5,-24(s0)
    1da8:	00c0006f          	j	1db4 <make_token+0x128>
    1dac:	fe0403a3          	sb	zero,-25(s0)
    1db0:	0100006f          	j	1dc0 <make_token+0x134>
    1db4:	fe842783          	lw	a5,-24(s0)
    1db8:	0007c783          	lbu	a5,0(a5)
    1dbc:	fc0790e3          	bnez	a5,1d7c <make_token+0xf0>
    1dc0:	fe744783          	lbu	a5,-25(s0)
    1dc4:	06078463          	beqz	a5,1e2c <make_token+0x1a0>
    1dc8:	000fe797          	auipc	a5,0xfe
    1dcc:	67078793          	addi	a5,a5,1648 # 100438 <nr_token>
    1dd0:	0007a783          	lw	a5,0(a5)
    1dd4:	000fe717          	auipc	a4,0xfe
    1dd8:	53c70713          	addi	a4,a4,1340 # 100310 <tokens>
    1ddc:	00379793          	slli	a5,a5,0x3
    1de0:	00f707b3          	add	a5,a4,a5
    1de4:	00200713          	li	a4,2
    1de8:	00e7a023          	sw	a4,0(a5)
    1dec:	000fe797          	auipc	a5,0xfe
    1df0:	64c78793          	addi	a5,a5,1612 # 100438 <nr_token>
    1df4:	0007a483          	lw	s1,0(a5)
    1df8:	00148713          	addi	a4,s1,1
    1dfc:	000fe797          	auipc	a5,0xfe
    1e00:	63c78793          	addi	a5,a5,1596 # 100438 <nr_token>
    1e04:	00e7a023          	sw	a4,0(a5)
    1e08:	fec42503          	lw	a0,-20(s0)
    1e0c:	bc1ff0ef          	jal	ra,19cc <atoi>
    1e10:	00050693          	mv	a3,a0
    1e14:	000fe717          	auipc	a4,0xfe
    1e18:	4fc70713          	addi	a4,a4,1276 # 100310 <tokens>
    1e1c:	00349793          	slli	a5,s1,0x3
    1e20:	00f707b3          	add	a5,a4,a5
    1e24:	00d7a223          	sw	a3,4(a5)
    1e28:	50c0006f          	j	2334 <make_token+0x6a8>
    1e2c:	000fe597          	auipc	a1,0xfe
    1e30:	2b058593          	addi	a1,a1,688 # 1000dc <_etext+0xfd150>
    1e34:	fec42503          	lw	a0,-20(s0)
    1e38:	e94ff0ef          	jal	ra,14cc <strcmp>
    1e3c:	00050793          	mv	a5,a0
    1e40:	02079e63          	bnez	a5,1e7c <make_token+0x1f0>
    1e44:	000fe797          	auipc	a5,0xfe
    1e48:	5f478793          	addi	a5,a5,1524 # 100438 <nr_token>
    1e4c:	0007a783          	lw	a5,0(a5)
    1e50:	00178693          	addi	a3,a5,1
    1e54:	000fe717          	auipc	a4,0xfe
    1e58:	5e470713          	addi	a4,a4,1508 # 100438 <nr_token>
    1e5c:	00d72023          	sw	a3,0(a4)
    1e60:	000fe717          	auipc	a4,0xfe
    1e64:	4b070713          	addi	a4,a4,1200 # 100310 <tokens>
    1e68:	00379793          	slli	a5,a5,0x3
    1e6c:	00f707b3          	add	a5,a4,a5
    1e70:	02b00713          	li	a4,43
    1e74:	00e7a023          	sw	a4,0(a5)
    1e78:	4bc0006f          	j	2334 <make_token+0x6a8>
    1e7c:	000fe597          	auipc	a1,0xfe
    1e80:	26458593          	addi	a1,a1,612 # 1000e0 <_etext+0xfd154>
    1e84:	fec42503          	lw	a0,-20(s0)
    1e88:	e44ff0ef          	jal	ra,14cc <strcmp>
    1e8c:	00050793          	mv	a5,a0
    1e90:	02079e63          	bnez	a5,1ecc <make_token+0x240>
    1e94:	000fe797          	auipc	a5,0xfe
    1e98:	5a478793          	addi	a5,a5,1444 # 100438 <nr_token>
    1e9c:	0007a783          	lw	a5,0(a5)
    1ea0:	00178693          	addi	a3,a5,1
    1ea4:	000fe717          	auipc	a4,0xfe
    1ea8:	59470713          	addi	a4,a4,1428 # 100438 <nr_token>
    1eac:	00d72023          	sw	a3,0(a4)
    1eb0:	000fe717          	auipc	a4,0xfe
    1eb4:	46070713          	addi	a4,a4,1120 # 100310 <tokens>
    1eb8:	00379793          	slli	a5,a5,0x3
    1ebc:	00f707b3          	add	a5,a4,a5
    1ec0:	02d00713          	li	a4,45
    1ec4:	00e7a023          	sw	a4,0(a5)
    1ec8:	46c0006f          	j	2334 <make_token+0x6a8>
    1ecc:	000fe597          	auipc	a1,0xfe
    1ed0:	21858593          	addi	a1,a1,536 # 1000e4 <_etext+0xfd158>
    1ed4:	fec42503          	lw	a0,-20(s0)
    1ed8:	df4ff0ef          	jal	ra,14cc <strcmp>
    1edc:	00050793          	mv	a5,a0
    1ee0:	02079e63          	bnez	a5,1f1c <make_token+0x290>
    1ee4:	000fe797          	auipc	a5,0xfe
    1ee8:	55478793          	addi	a5,a5,1364 # 100438 <nr_token>
    1eec:	0007a783          	lw	a5,0(a5)
    1ef0:	00178693          	addi	a3,a5,1
    1ef4:	000fe717          	auipc	a4,0xfe
    1ef8:	54470713          	addi	a4,a4,1348 # 100438 <nr_token>
    1efc:	00d72023          	sw	a3,0(a4)
    1f00:	000fe717          	auipc	a4,0xfe
    1f04:	41070713          	addi	a4,a4,1040 # 100310 <tokens>
    1f08:	00379793          	slli	a5,a5,0x3
    1f0c:	00f707b3          	add	a5,a4,a5
    1f10:	02a00713          	li	a4,42
    1f14:	00e7a023          	sw	a4,0(a5)
    1f18:	41c0006f          	j	2334 <make_token+0x6a8>
    1f1c:	000fe597          	auipc	a1,0xfe
    1f20:	1cc58593          	addi	a1,a1,460 # 1000e8 <_etext+0xfd15c>
    1f24:	fec42503          	lw	a0,-20(s0)
    1f28:	da4ff0ef          	jal	ra,14cc <strcmp>
    1f2c:	00050793          	mv	a5,a0
    1f30:	02079e63          	bnez	a5,1f6c <make_token+0x2e0>
    1f34:	000fe797          	auipc	a5,0xfe
    1f38:	50478793          	addi	a5,a5,1284 # 100438 <nr_token>
    1f3c:	0007a783          	lw	a5,0(a5)
    1f40:	00178693          	addi	a3,a5,1
    1f44:	000fe717          	auipc	a4,0xfe
    1f48:	4f470713          	addi	a4,a4,1268 # 100438 <nr_token>
    1f4c:	00d72023          	sw	a3,0(a4)
    1f50:	000fe717          	auipc	a4,0xfe
    1f54:	3c070713          	addi	a4,a4,960 # 100310 <tokens>
    1f58:	00379793          	slli	a5,a5,0x3
    1f5c:	00f707b3          	add	a5,a4,a5
    1f60:	02f00713          	li	a4,47
    1f64:	00e7a023          	sw	a4,0(a5)
    1f68:	3cc0006f          	j	2334 <make_token+0x6a8>
    1f6c:	000fe597          	auipc	a1,0xfe
    1f70:	18058593          	addi	a1,a1,384 # 1000ec <_etext+0xfd160>
    1f74:	fec42503          	lw	a0,-20(s0)
    1f78:	d54ff0ef          	jal	ra,14cc <strcmp>
    1f7c:	00050793          	mv	a5,a0
    1f80:	02079e63          	bnez	a5,1fbc <make_token+0x330>
    1f84:	000fe797          	auipc	a5,0xfe
    1f88:	4b478793          	addi	a5,a5,1204 # 100438 <nr_token>
    1f8c:	0007a783          	lw	a5,0(a5)
    1f90:	00178693          	addi	a3,a5,1
    1f94:	000fe717          	auipc	a4,0xfe
    1f98:	4a470713          	addi	a4,a4,1188 # 100438 <nr_token>
    1f9c:	00d72023          	sw	a3,0(a4)
    1fa0:	000fe717          	auipc	a4,0xfe
    1fa4:	37070713          	addi	a4,a4,880 # 100310 <tokens>
    1fa8:	00379793          	slli	a5,a5,0x3
    1fac:	00f707b3          	add	a5,a4,a5
    1fb0:	02800713          	li	a4,40
    1fb4:	00e7a023          	sw	a4,0(a5)
    1fb8:	37c0006f          	j	2334 <make_token+0x6a8>
    1fbc:	000fe597          	auipc	a1,0xfe
    1fc0:	13458593          	addi	a1,a1,308 # 1000f0 <_etext+0xfd164>
    1fc4:	fec42503          	lw	a0,-20(s0)
    1fc8:	d04ff0ef          	jal	ra,14cc <strcmp>
    1fcc:	00050793          	mv	a5,a0
    1fd0:	02079e63          	bnez	a5,200c <make_token+0x380>
    1fd4:	000fe797          	auipc	a5,0xfe
    1fd8:	46478793          	addi	a5,a5,1124 # 100438 <nr_token>
    1fdc:	0007a783          	lw	a5,0(a5)
    1fe0:	00178693          	addi	a3,a5,1
    1fe4:	000fe717          	auipc	a4,0xfe
    1fe8:	45470713          	addi	a4,a4,1108 # 100438 <nr_token>
    1fec:	00d72023          	sw	a3,0(a4)
    1ff0:	000fe717          	auipc	a4,0xfe
    1ff4:	32070713          	addi	a4,a4,800 # 100310 <tokens>
    1ff8:	00379793          	slli	a5,a5,0x3
    1ffc:	00f707b3          	add	a5,a4,a5
    2000:	02900713          	li	a4,41
    2004:	00e7a023          	sw	a4,0(a5)
    2008:	32c0006f          	j	2334 <make_token+0x6a8>
    200c:	000fe597          	auipc	a1,0xfe
    2010:	0e858593          	addi	a1,a1,232 # 1000f4 <_etext+0xfd168>
    2014:	fec42503          	lw	a0,-20(s0)
    2018:	cb4ff0ef          	jal	ra,14cc <strcmp>
    201c:	00050793          	mv	a5,a0
    2020:	02079e63          	bnez	a5,205c <make_token+0x3d0>
    2024:	000fe797          	auipc	a5,0xfe
    2028:	41478793          	addi	a5,a5,1044 # 100438 <nr_token>
    202c:	0007a783          	lw	a5,0(a5)
    2030:	00178693          	addi	a3,a5,1
    2034:	000fe717          	auipc	a4,0xfe
    2038:	40470713          	addi	a4,a4,1028 # 100438 <nr_token>
    203c:	00d72023          	sw	a3,0(a4)
    2040:	000fe717          	auipc	a4,0xfe
    2044:	2d070713          	addi	a4,a4,720 # 100310 <tokens>
    2048:	00379793          	slli	a5,a5,0x3
    204c:	00f707b3          	add	a5,a4,a5
    2050:	00500713          	li	a4,5
    2054:	00e7a023          	sw	a4,0(a5)
    2058:	2dc0006f          	j	2334 <make_token+0x6a8>
    205c:	000fe597          	auipc	a1,0xfe
    2060:	09c58593          	addi	a1,a1,156 # 1000f8 <_etext+0xfd16c>
    2064:	fec42503          	lw	a0,-20(s0)
    2068:	c64ff0ef          	jal	ra,14cc <strcmp>
    206c:	00050793          	mv	a5,a0
    2070:	02079e63          	bnez	a5,20ac <make_token+0x420>
    2074:	000fe797          	auipc	a5,0xfe
    2078:	3c478793          	addi	a5,a5,964 # 100438 <nr_token>
    207c:	0007a783          	lw	a5,0(a5)
    2080:	00178693          	addi	a3,a5,1
    2084:	000fe717          	auipc	a4,0xfe
    2088:	3b470713          	addi	a4,a4,948 # 100438 <nr_token>
    208c:	00d72023          	sw	a3,0(a4)
    2090:	000fe717          	auipc	a4,0xfe
    2094:	28070713          	addi	a4,a4,640 # 100310 <tokens>
    2098:	00379793          	slli	a5,a5,0x3
    209c:	00f707b3          	add	a5,a4,a5
    20a0:	00600713          	li	a4,6
    20a4:	00e7a023          	sw	a4,0(a5)
    20a8:	28c0006f          	j	2334 <make_token+0x6a8>
    20ac:	000fe597          	auipc	a1,0xfe
    20b0:	05058593          	addi	a1,a1,80 # 1000fc <_etext+0xfd170>
    20b4:	fec42503          	lw	a0,-20(s0)
    20b8:	c14ff0ef          	jal	ra,14cc <strcmp>
    20bc:	00050793          	mv	a5,a0
    20c0:	02079e63          	bnez	a5,20fc <make_token+0x470>
    20c4:	000fe797          	auipc	a5,0xfe
    20c8:	37478793          	addi	a5,a5,884 # 100438 <nr_token>
    20cc:	0007a783          	lw	a5,0(a5)
    20d0:	00178693          	addi	a3,a5,1
    20d4:	000fe717          	auipc	a4,0xfe
    20d8:	36470713          	addi	a4,a4,868 # 100438 <nr_token>
    20dc:	00d72023          	sw	a3,0(a4)
    20e0:	000fe717          	auipc	a4,0xfe
    20e4:	23070713          	addi	a4,a4,560 # 100310 <tokens>
    20e8:	00379793          	slli	a5,a5,0x3
    20ec:	00f707b3          	add	a5,a4,a5
    20f0:	00700713          	li	a4,7
    20f4:	00e7a023          	sw	a4,0(a5)
    20f8:	23c0006f          	j	2334 <make_token+0x6a8>
    20fc:	000fe597          	auipc	a1,0xfe
    2100:	00458593          	addi	a1,a1,4 # 100100 <_etext+0xfd174>
    2104:	fec42503          	lw	a0,-20(s0)
    2108:	bc4ff0ef          	jal	ra,14cc <strcmp>
    210c:	00050793          	mv	a5,a0
    2110:	02079e63          	bnez	a5,214c <make_token+0x4c0>
    2114:	000fe797          	auipc	a5,0xfe
    2118:	32478793          	addi	a5,a5,804 # 100438 <nr_token>
    211c:	0007a783          	lw	a5,0(a5)
    2120:	00178693          	addi	a3,a5,1
    2124:	000fe717          	auipc	a4,0xfe
    2128:	31470713          	addi	a4,a4,788 # 100438 <nr_token>
    212c:	00d72023          	sw	a3,0(a4)
    2130:	000fe717          	auipc	a4,0xfe
    2134:	1e070713          	addi	a4,a4,480 # 100310 <tokens>
    2138:	00379793          	slli	a5,a5,0x3
    213c:	00f707b3          	add	a5,a4,a5
    2140:	00800713          	li	a4,8
    2144:	00e7a023          	sw	a4,0(a5)
    2148:	1ec0006f          	j	2334 <make_token+0x6a8>
    214c:	000fe597          	auipc	a1,0xfe
    2150:	fb858593          	addi	a1,a1,-72 # 100104 <_etext+0xfd178>
    2154:	fec42503          	lw	a0,-20(s0)
    2158:	b74ff0ef          	jal	ra,14cc <strcmp>
    215c:	00050793          	mv	a5,a0
    2160:	02079e63          	bnez	a5,219c <make_token+0x510>
    2164:	000fe797          	auipc	a5,0xfe
    2168:	2d478793          	addi	a5,a5,724 # 100438 <nr_token>
    216c:	0007a783          	lw	a5,0(a5)
    2170:	00178693          	addi	a3,a5,1
    2174:	000fe717          	auipc	a4,0xfe
    2178:	2c470713          	addi	a4,a4,708 # 100438 <nr_token>
    217c:	00d72023          	sw	a3,0(a4)
    2180:	000fe717          	auipc	a4,0xfe
    2184:	19070713          	addi	a4,a4,400 # 100310 <tokens>
    2188:	00379793          	slli	a5,a5,0x3
    218c:	00f707b3          	add	a5,a4,a5
    2190:	00900713          	li	a4,9
    2194:	00e7a023          	sw	a4,0(a5)
    2198:	19c0006f          	j	2334 <make_token+0x6a8>
    219c:	000fe597          	auipc	a1,0xfe
    21a0:	f6c58593          	addi	a1,a1,-148 # 100108 <_etext+0xfd17c>
    21a4:	fec42503          	lw	a0,-20(s0)
    21a8:	b24ff0ef          	jal	ra,14cc <strcmp>
    21ac:	00050793          	mv	a5,a0
    21b0:	02079e63          	bnez	a5,21ec <make_token+0x560>
    21b4:	000fe797          	auipc	a5,0xfe
    21b8:	28478793          	addi	a5,a5,644 # 100438 <nr_token>
    21bc:	0007a783          	lw	a5,0(a5)
    21c0:	00178693          	addi	a3,a5,1
    21c4:	000fe717          	auipc	a4,0xfe
    21c8:	27470713          	addi	a4,a4,628 # 100438 <nr_token>
    21cc:	00d72023          	sw	a3,0(a4)
    21d0:	000fe717          	auipc	a4,0xfe
    21d4:	14070713          	addi	a4,a4,320 # 100310 <tokens>
    21d8:	00379793          	slli	a5,a5,0x3
    21dc:	00f707b3          	add	a5,a4,a5
    21e0:	00a00713          	li	a4,10
    21e4:	00e7a023          	sw	a4,0(a5)
    21e8:	14c0006f          	j	2334 <make_token+0x6a8>
    21ec:	000fe597          	auipc	a1,0xfe
    21f0:	f2058593          	addi	a1,a1,-224 # 10010c <_etext+0xfd180>
    21f4:	fec42503          	lw	a0,-20(s0)
    21f8:	ad4ff0ef          	jal	ra,14cc <strcmp>
    21fc:	00050793          	mv	a5,a0
    2200:	02079e63          	bnez	a5,223c <make_token+0x5b0>
    2204:	000fe797          	auipc	a5,0xfe
    2208:	23478793          	addi	a5,a5,564 # 100438 <nr_token>
    220c:	0007a783          	lw	a5,0(a5)
    2210:	00178693          	addi	a3,a5,1
    2214:	000fe717          	auipc	a4,0xfe
    2218:	22470713          	addi	a4,a4,548 # 100438 <nr_token>
    221c:	00d72023          	sw	a3,0(a4)
    2220:	000fe717          	auipc	a4,0xfe
    2224:	0f070713          	addi	a4,a4,240 # 100310 <tokens>
    2228:	00379793          	slli	a5,a5,0x3
    222c:	00f707b3          	add	a5,a4,a5
    2230:	00b00713          	li	a4,11
    2234:	00e7a023          	sw	a4,0(a5)
    2238:	0fc0006f          	j	2334 <make_token+0x6a8>
    223c:	000fe597          	auipc	a1,0xfe
    2240:	ed458593          	addi	a1,a1,-300 # 100110 <_etext+0xfd184>
    2244:	fec42503          	lw	a0,-20(s0)
    2248:	a84ff0ef          	jal	ra,14cc <strcmp>
    224c:	00050793          	mv	a5,a0
    2250:	02079e63          	bnez	a5,228c <make_token+0x600>
    2254:	000fe797          	auipc	a5,0xfe
    2258:	1e478793          	addi	a5,a5,484 # 100438 <nr_token>
    225c:	0007a783          	lw	a5,0(a5)
    2260:	00178693          	addi	a3,a5,1
    2264:	000fe717          	auipc	a4,0xfe
    2268:	1d470713          	addi	a4,a4,468 # 100438 <nr_token>
    226c:	00d72023          	sw	a3,0(a4)
    2270:	000fe717          	auipc	a4,0xfe
    2274:	0a070713          	addi	a4,a4,160 # 100310 <tokens>
    2278:	00379793          	slli	a5,a5,0x3
    227c:	00f707b3          	add	a5,a4,a5
    2280:	00c00713          	li	a4,12
    2284:	00e7a023          	sw	a4,0(a5)
    2288:	0ac0006f          	j	2334 <make_token+0x6a8>
    228c:	000fe597          	auipc	a1,0xfe
    2290:	e8858593          	addi	a1,a1,-376 # 100114 <_etext+0xfd188>
    2294:	fec42503          	lw	a0,-20(s0)
    2298:	a34ff0ef          	jal	ra,14cc <strcmp>
    229c:	00050793          	mv	a5,a0
    22a0:	02079e63          	bnez	a5,22dc <make_token+0x650>
    22a4:	000fe797          	auipc	a5,0xfe
    22a8:	19478793          	addi	a5,a5,404 # 100438 <nr_token>
    22ac:	0007a783          	lw	a5,0(a5)
    22b0:	00178693          	addi	a3,a5,1
    22b4:	000fe717          	auipc	a4,0xfe
    22b8:	18470713          	addi	a4,a4,388 # 100438 <nr_token>
    22bc:	00d72023          	sw	a3,0(a4)
    22c0:	000fe717          	auipc	a4,0xfe
    22c4:	05070713          	addi	a4,a4,80 # 100310 <tokens>
    22c8:	00379793          	slli	a5,a5,0x3
    22cc:	00f707b3          	add	a5,a4,a5
    22d0:	00d00713          	li	a4,13
    22d4:	00e7a023          	sw	a4,0(a5)
    22d8:	05c0006f          	j	2334 <make_token+0x6a8>
    22dc:	000fe597          	auipc	a1,0xfe
    22e0:	e3c58593          	addi	a1,a1,-452 # 100118 <_etext+0xfd18c>
    22e4:	fec42503          	lw	a0,-20(s0)
    22e8:	9e4ff0ef          	jal	ra,14cc <strcmp>
    22ec:	00050793          	mv	a5,a0
    22f0:	02079e63          	bnez	a5,232c <make_token+0x6a0>
    22f4:	000fe797          	auipc	a5,0xfe
    22f8:	14478793          	addi	a5,a5,324 # 100438 <nr_token>
    22fc:	0007a783          	lw	a5,0(a5)
    2300:	00178693          	addi	a3,a5,1
    2304:	000fe717          	auipc	a4,0xfe
    2308:	13470713          	addi	a4,a4,308 # 100438 <nr_token>
    230c:	00d72023          	sw	a3,0(a4)
    2310:	000fe717          	auipc	a4,0xfe
    2314:	00070713          	mv	a4,a4
    2318:	00379793          	slli	a5,a5,0x3
    231c:	00f707b3          	add	a5,a4,a5
    2320:	00e00713          	li	a4,14
    2324:	00e7a023          	sw	a4,0(a5)
    2328:	00c0006f          	j	2334 <make_token+0x6a8>
    232c:	00000793          	li	a5,0
    2330:	0280006f          	j	2358 <make_token+0x6cc>
    2334:	000fe597          	auipc	a1,0xfe
    2338:	d9c58593          	addi	a1,a1,-612 # 1000d0 <_etext+0xfd144>
    233c:	00000513          	li	a0,0
    2340:	aa0ff0ef          	jal	ra,15e0 <strtok>
    2344:	00050793          	mv	a5,a0
    2348:	fef42623          	sw	a5,-20(s0)
    234c:	fec42783          	lw	a5,-20(s0)
    2350:	96079ee3          	bnez	a5,1ccc <make_token+0x40>
    2354:	00100793          	li	a5,1
    2358:	00078513          	mv	a0,a5
    235c:	02c12083          	lw	ra,44(sp)
    2360:	02812403          	lw	s0,40(sp)
    2364:	02412483          	lw	s1,36(sp)
    2368:	03010113          	addi	sp,sp,48
    236c:	00008067          	ret

00002370 <pre_process>:
    2370:	fe010113          	addi	sp,sp,-32
    2374:	00812e23          	sw	s0,28(sp)
    2378:	02010413          	addi	s0,sp,32
    237c:	00100793          	li	a5,1
    2380:	fef407a3          	sb	a5,-17(s0)
    2384:	fe042423          	sw	zero,-24(s0)
    2388:	1440006f          	j	24cc <pre_process+0x15c>
    238c:	000fe717          	auipc	a4,0xfe
    2390:	f8470713          	addi	a4,a4,-124 # 100310 <tokens>
    2394:	fe842783          	lw	a5,-24(s0)
    2398:	00379793          	slli	a5,a5,0x3
    239c:	00f707b3          	add	a5,a4,a5
    23a0:	0007a703          	lw	a4,0(a5)
    23a4:	02b00793          	li	a5,43
    23a8:	02f71c63          	bne	a4,a5,23e0 <pre_process+0x70>
    23ac:	fef44783          	lbu	a5,-17(s0)
    23b0:	02078263          	beqz	a5,23d4 <pre_process+0x64>
    23b4:	000fe717          	auipc	a4,0xfe
    23b8:	f5c70713          	addi	a4,a4,-164 # 100310 <tokens>
    23bc:	fe842783          	lw	a5,-24(s0)
    23c0:	00379793          	slli	a5,a5,0x3
    23c4:	00f707b3          	add	a5,a4,a5
    23c8:	00300713          	li	a4,3
    23cc:	00e7a023          	sw	a4,0(a5)
    23d0:	0f00006f          	j	24c0 <pre_process+0x150>
    23d4:	00100793          	li	a5,1
    23d8:	fef407a3          	sb	a5,-17(s0)
    23dc:	0e40006f          	j	24c0 <pre_process+0x150>
    23e0:	000fe717          	auipc	a4,0xfe
    23e4:	f3070713          	addi	a4,a4,-208 # 100310 <tokens>
    23e8:	fe842783          	lw	a5,-24(s0)
    23ec:	00379793          	slli	a5,a5,0x3
    23f0:	00f707b3          	add	a5,a4,a5
    23f4:	0007a703          	lw	a4,0(a5)
    23f8:	02d00793          	li	a5,45
    23fc:	02f71c63          	bne	a4,a5,2434 <pre_process+0xc4>
    2400:	fef44783          	lbu	a5,-17(s0)
    2404:	02078263          	beqz	a5,2428 <pre_process+0xb8>
    2408:	000fe717          	auipc	a4,0xfe
    240c:	f0870713          	addi	a4,a4,-248 # 100310 <tokens>
    2410:	fe842783          	lw	a5,-24(s0)
    2414:	00379793          	slli	a5,a5,0x3
    2418:	00f707b3          	add	a5,a4,a5
    241c:	00400713          	li	a4,4
    2420:	00e7a023          	sw	a4,0(a5)
    2424:	09c0006f          	j	24c0 <pre_process+0x150>
    2428:	00100793          	li	a5,1
    242c:	fef407a3          	sb	a5,-17(s0)
    2430:	0900006f          	j	24c0 <pre_process+0x150>
    2434:	000fe717          	auipc	a4,0xfe
    2438:	edc70713          	addi	a4,a4,-292 # 100310 <tokens>
    243c:	fe842783          	lw	a5,-24(s0)
    2440:	00379793          	slli	a5,a5,0x3
    2444:	00f707b3          	add	a5,a4,a5
    2448:	0007a703          	lw	a4,0(a5)
    244c:	02f00793          	li	a5,47
    2450:	06f70063          	beq	a4,a5,24b0 <pre_process+0x140>
    2454:	000fe717          	auipc	a4,0xfe
    2458:	ebc70713          	addi	a4,a4,-324 # 100310 <tokens>
    245c:	fe842783          	lw	a5,-24(s0)
    2460:	00379793          	slli	a5,a5,0x3
    2464:	00f707b3          	add	a5,a4,a5
    2468:	0007a703          	lw	a4,0(a5)
    246c:	02800793          	li	a5,40
    2470:	04f70063          	beq	a4,a5,24b0 <pre_process+0x140>
    2474:	000fe717          	auipc	a4,0xfe
    2478:	e9c70713          	addi	a4,a4,-356 # 100310 <tokens>
    247c:	fe842783          	lw	a5,-24(s0)
    2480:	00379793          	slli	a5,a5,0x3
    2484:	00f707b3          	add	a5,a4,a5
    2488:	0007a783          	lw	a5,0(a5)
    248c:	02078263          	beqz	a5,24b0 <pre_process+0x140>
    2490:	000fe717          	auipc	a4,0xfe
    2494:	e8070713          	addi	a4,a4,-384 # 100310 <tokens>
    2498:	fe842783          	lw	a5,-24(s0)
    249c:	00379793          	slli	a5,a5,0x3
    24a0:	00f707b3          	add	a5,a4,a5
    24a4:	0007a703          	lw	a4,0(a5)
    24a8:	00100793          	li	a5,1
    24ac:	00f71863          	bne	a4,a5,24bc <pre_process+0x14c>
    24b0:	00100793          	li	a5,1
    24b4:	fef407a3          	sb	a5,-17(s0)
    24b8:	0080006f          	j	24c0 <pre_process+0x150>
    24bc:	fe0407a3          	sb	zero,-17(s0)
    24c0:	fe842783          	lw	a5,-24(s0)
    24c4:	00178793          	addi	a5,a5,1
    24c8:	fef42423          	sw	a5,-24(s0)
    24cc:	000fe797          	auipc	a5,0xfe
    24d0:	f6c78793          	addi	a5,a5,-148 # 100438 <nr_token>
    24d4:	0007a783          	lw	a5,0(a5)
    24d8:	fe842703          	lw	a4,-24(s0)
    24dc:	eaf748e3          	blt	a4,a5,238c <pre_process+0x1c>
    24e0:	00000013          	nop
    24e4:	00000013          	nop
    24e8:	01c12403          	lw	s0,28(sp)
    24ec:	02010113          	addi	sp,sp,32
    24f0:	00008067          	ret

000024f4 <check_parentheses>:
    24f4:	fd010113          	addi	sp,sp,-48
    24f8:	02812623          	sw	s0,44(sp)
    24fc:	03010413          	addi	s0,sp,48
    2500:	fca42e23          	sw	a0,-36(s0)
    2504:	fcb42c23          	sw	a1,-40(s0)
    2508:	000fe717          	auipc	a4,0xfe
    250c:	e0870713          	addi	a4,a4,-504 # 100310 <tokens>
    2510:	fdc42783          	lw	a5,-36(s0)
    2514:	00379793          	slli	a5,a5,0x3
    2518:	00f707b3          	add	a5,a4,a5
    251c:	0007a703          	lw	a4,0(a5)
    2520:	02800793          	li	a5,40
    2524:	02f71263          	bne	a4,a5,2548 <check_parentheses+0x54>
    2528:	000fe717          	auipc	a4,0xfe
    252c:	de870713          	addi	a4,a4,-536 # 100310 <tokens>
    2530:	fd842783          	lw	a5,-40(s0)
    2534:	00379793          	slli	a5,a5,0x3
    2538:	00f707b3          	add	a5,a4,a5
    253c:	0007a703          	lw	a4,0(a5)
    2540:	02900793          	li	a5,41
    2544:	00f70663          	beq	a4,a5,2550 <check_parentheses+0x5c>
    2548:	00000793          	li	a5,0
    254c:	0a40006f          	j	25f0 <check_parentheses+0xfc>
    2550:	fe042623          	sw	zero,-20(s0)
    2554:	fdc42783          	lw	a5,-36(s0)
    2558:	fef42423          	sw	a5,-24(s0)
    255c:	07c0006f          	j	25d8 <check_parentheses+0xe4>
    2560:	fec42783          	lw	a5,-20(s0)
    2564:	0007d663          	bgez	a5,2570 <check_parentheses+0x7c>
    2568:	00000793          	li	a5,0
    256c:	0840006f          	j	25f0 <check_parentheses+0xfc>
    2570:	000fe717          	auipc	a4,0xfe
    2574:	da070713          	addi	a4,a4,-608 # 100310 <tokens>
    2578:	fe842783          	lw	a5,-24(s0)
    257c:	00379793          	slli	a5,a5,0x3
    2580:	00f707b3          	add	a5,a4,a5
    2584:	0007a703          	lw	a4,0(a5)
    2588:	02800793          	li	a5,40
    258c:	00f71a63          	bne	a4,a5,25a0 <check_parentheses+0xac>
    2590:	fec42783          	lw	a5,-20(s0)
    2594:	00178793          	addi	a5,a5,1
    2598:	fef42623          	sw	a5,-20(s0)
    259c:	0300006f          	j	25cc <check_parentheses+0xd8>
    25a0:	000fe717          	auipc	a4,0xfe
    25a4:	d7070713          	addi	a4,a4,-656 # 100310 <tokens>
    25a8:	fe842783          	lw	a5,-24(s0)
    25ac:	00379793          	slli	a5,a5,0x3
    25b0:	00f707b3          	add	a5,a4,a5
    25b4:	0007a703          	lw	a4,0(a5)
    25b8:	02900793          	li	a5,41
    25bc:	00f71863          	bne	a4,a5,25cc <check_parentheses+0xd8>
    25c0:	fec42783          	lw	a5,-20(s0)
    25c4:	fff78793          	addi	a5,a5,-1
    25c8:	fef42623          	sw	a5,-20(s0)
    25cc:	fe842783          	lw	a5,-24(s0)
    25d0:	00178793          	addi	a5,a5,1
    25d4:	fef42423          	sw	a5,-24(s0)
    25d8:	fe842703          	lw	a4,-24(s0)
    25dc:	fd842783          	lw	a5,-40(s0)
    25e0:	f8e7d0e3          	bge	a5,a4,2560 <check_parentheses+0x6c>
    25e4:	fec42783          	lw	a5,-20(s0)
    25e8:	0017b793          	seqz	a5,a5
    25ec:	0ff7f793          	andi	a5,a5,255
    25f0:	00078513          	mv	a0,a5
    25f4:	02c12403          	lw	s0,44(sp)
    25f8:	03010113          	addi	sp,sp,48
    25fc:	00008067          	ret

00002600 <priority>:
    2600:	fe010113          	addi	sp,sp,-32
    2604:	00812e23          	sw	s0,28(sp)
    2608:	02010413          	addi	s0,sp,32
    260c:	00050793          	mv	a5,a0
    2610:	fef407a3          	sb	a5,-17(s0)
    2614:	fef44783          	lbu	a5,-17(s0)
    2618:	02f00713          	li	a4,47
    261c:	04f76463          	bltu	a4,a5,2664 <priority+0x64>
    2620:	00279713          	slli	a4,a5,0x2
    2624:	000fe797          	auipc	a5,0xfe
    2628:	af878793          	addi	a5,a5,-1288 # 10011c <_etext+0xfd190>
    262c:	00f707b3          	add	a5,a4,a5
    2630:	0007a703          	lw	a4,0(a5)
    2634:	000fe797          	auipc	a5,0xfe
    2638:	ae878793          	addi	a5,a5,-1304 # 10011c <_etext+0xfd190>
    263c:	00f707b3          	add	a5,a4,a5
    2640:	00078067          	jr	a5
    2644:	00a00793          	li	a5,10
    2648:	0200006f          	j	2668 <priority+0x68>
    264c:	00b00793          	li	a5,11
    2650:	0180006f          	j	2668 <priority+0x68>
    2654:	00c00793          	li	a5,12
    2658:	0100006f          	j	2668 <priority+0x68>
    265c:	00e00793          	li	a5,14
    2660:	0080006f          	j	2668 <priority+0x68>
    2664:	06400793          	li	a5,100
    2668:	00078513          	mv	a0,a5
    266c:	01c12403          	lw	s0,28(sp)
    2670:	02010113          	addi	sp,sp,32
    2674:	00008067          	ret

00002678 <find_match_parentheses>:
    2678:	fd010113          	addi	sp,sp,-48
    267c:	02112623          	sw	ra,44(sp)
    2680:	02812423          	sw	s0,40(sp)
    2684:	03010413          	addi	s0,sp,48
    2688:	fca42e23          	sw	a0,-36(s0)
    268c:	fcb42c23          	sw	a1,-40(s0)
    2690:	fdc42783          	lw	a5,-36(s0)
    2694:	00178793          	addi	a5,a5,1
    2698:	fef42623          	sw	a5,-20(s0)
    269c:	02c0006f          	j	26c8 <find_match_parentheses+0x50>
    26a0:	fec42583          	lw	a1,-20(s0)
    26a4:	fdc42503          	lw	a0,-36(s0)
    26a8:	e4dff0ef          	jal	ra,24f4 <check_parentheses>
    26ac:	00050793          	mv	a5,a0
    26b0:	00078663          	beqz	a5,26bc <find_match_parentheses+0x44>
    26b4:	fec42783          	lw	a5,-20(s0)
    26b8:	0200006f          	j	26d8 <find_match_parentheses+0x60>
    26bc:	fec42783          	lw	a5,-20(s0)
    26c0:	00178793          	addi	a5,a5,1
    26c4:	fef42623          	sw	a5,-20(s0)
    26c8:	fec42703          	lw	a4,-20(s0)
    26cc:	fd842783          	lw	a5,-40(s0)
    26d0:	fce7d8e3          	bge	a5,a4,26a0 <find_match_parentheses+0x28>
    26d4:	fff00793          	li	a5,-1
    26d8:	00078513          	mv	a0,a5
    26dc:	02c12083          	lw	ra,44(sp)
    26e0:	02812403          	lw	s0,40(sp)
    26e4:	03010113          	addi	sp,sp,48
    26e8:	00008067          	ret

000026ec <is_operator>:
    26ec:	fe010113          	addi	sp,sp,-32
    26f0:	00812e23          	sw	s0,28(sp)
    26f4:	02010413          	addi	s0,sp,32
    26f8:	00050793          	mv	a5,a0
    26fc:	fef407a3          	sb	a5,-17(s0)
    2700:	fef44703          	lbu	a4,-17(s0)
    2704:	02b00793          	li	a5,43
    2708:	0cf70663          	beq	a4,a5,27d4 <is_operator+0xe8>
    270c:	fef44703          	lbu	a4,-17(s0)
    2710:	02d00793          	li	a5,45
    2714:	0cf70063          	beq	a4,a5,27d4 <is_operator+0xe8>
    2718:	fef44703          	lbu	a4,-17(s0)
    271c:	02f00793          	li	a5,47
    2720:	0af70a63          	beq	a4,a5,27d4 <is_operator+0xe8>
    2724:	fef44703          	lbu	a4,-17(s0)
    2728:	02a00793          	li	a5,42
    272c:	0af70463          	beq	a4,a5,27d4 <is_operator+0xe8>
    2730:	fef44703          	lbu	a4,-17(s0)
    2734:	00400793          	li	a5,4
    2738:	08f70e63          	beq	a4,a5,27d4 <is_operator+0xe8>
    273c:	fef44703          	lbu	a4,-17(s0)
    2740:	00300793          	li	a5,3
    2744:	08f70863          	beq	a4,a5,27d4 <is_operator+0xe8>
    2748:	fef44783          	lbu	a5,-17(s0)
    274c:	08078463          	beqz	a5,27d4 <is_operator+0xe8>
    2750:	fef44703          	lbu	a4,-17(s0)
    2754:	00100793          	li	a5,1
    2758:	06f70e63          	beq	a4,a5,27d4 <is_operator+0xe8>
    275c:	fef44703          	lbu	a4,-17(s0)
    2760:	00600793          	li	a5,6
    2764:	06f70863          	beq	a4,a5,27d4 <is_operator+0xe8>
    2768:	fef44703          	lbu	a4,-17(s0)
    276c:	00500793          	li	a5,5
    2770:	06f70263          	beq	a4,a5,27d4 <is_operator+0xe8>
    2774:	fef44703          	lbu	a4,-17(s0)
    2778:	00800793          	li	a5,8
    277c:	04f70c63          	beq	a4,a5,27d4 <is_operator+0xe8>
    2780:	fef44703          	lbu	a4,-17(s0)
    2784:	00700793          	li	a5,7
    2788:	04f70663          	beq	a4,a5,27d4 <is_operator+0xe8>
    278c:	fef44703          	lbu	a4,-17(s0)
    2790:	00900793          	li	a5,9
    2794:	04f70063          	beq	a4,a5,27d4 <is_operator+0xe8>
    2798:	fef44703          	lbu	a4,-17(s0)
    279c:	00b00793          	li	a5,11
    27a0:	02f70a63          	beq	a4,a5,27d4 <is_operator+0xe8>
    27a4:	fef44703          	lbu	a4,-17(s0)
    27a8:	00a00793          	li	a5,10
    27ac:	02f70463          	beq	a4,a5,27d4 <is_operator+0xe8>
    27b0:	fef44703          	lbu	a4,-17(s0)
    27b4:	00c00793          	li	a5,12
    27b8:	00f70e63          	beq	a4,a5,27d4 <is_operator+0xe8>
    27bc:	fef44703          	lbu	a4,-17(s0)
    27c0:	00d00793          	li	a5,13
    27c4:	00f70863          	beq	a4,a5,27d4 <is_operator+0xe8>
    27c8:	fef44703          	lbu	a4,-17(s0)
    27cc:	00e00793          	li	a5,14
    27d0:	00f71663          	bne	a4,a5,27dc <is_operator+0xf0>
    27d4:	00100793          	li	a5,1
    27d8:	0080006f          	j	27e0 <is_operator+0xf4>
    27dc:	00000793          	li	a5,0
    27e0:	0ff7f793          	andi	a5,a5,255
    27e4:	00078513          	mv	a0,a5
    27e8:	01c12403          	lw	s0,28(sp)
    27ec:	02010113          	addi	sp,sp,32
    27f0:	00008067          	ret

000027f4 <dominant_operator>:
    27f4:	fd010113          	addi	sp,sp,-48
    27f8:	02112623          	sw	ra,44(sp)
    27fc:	02812423          	sw	s0,40(sp)
    2800:	02912223          	sw	s1,36(sp)
    2804:	03010413          	addi	s0,sp,48
    2808:	fca42e23          	sw	a0,-36(s0)
    280c:	fcb42c23          	sw	a1,-40(s0)
    2810:	fff00793          	li	a5,-1
    2814:	fef42623          	sw	a5,-20(s0)
    2818:	fdc42783          	lw	a5,-36(s0)
    281c:	fef42423          	sw	a5,-24(s0)
    2820:	1cc0006f          	j	29ec <dominant_operator+0x1f8>
    2824:	000fe717          	auipc	a4,0xfe
    2828:	aec70713          	addi	a4,a4,-1300 # 100310 <tokens>
    282c:	fe842783          	lw	a5,-24(s0)
    2830:	00379793          	slli	a5,a5,0x3
    2834:	00f707b3          	add	a5,a4,a5
    2838:	0007a703          	lw	a4,0(a5)
    283c:	02800793          	li	a5,40
    2840:	00f71a63          	bne	a4,a5,2854 <dominant_operator+0x60>
    2844:	fd842583          	lw	a1,-40(s0)
    2848:	fe842503          	lw	a0,-24(s0)
    284c:	e2dff0ef          	jal	ra,2678 <find_match_parentheses>
    2850:	fea42423          	sw	a0,-24(s0)
    2854:	000fe717          	auipc	a4,0xfe
    2858:	abc70713          	addi	a4,a4,-1348 # 100310 <tokens>
    285c:	fe842783          	lw	a5,-24(s0)
    2860:	00379793          	slli	a5,a5,0x3
    2864:	00f707b3          	add	a5,a4,a5
    2868:	0007a783          	lw	a5,0(a5)
    286c:	0ff7f793          	andi	a5,a5,255
    2870:	00078513          	mv	a0,a5
    2874:	e79ff0ef          	jal	ra,26ec <is_operator>
    2878:	00050793          	mv	a5,a0
    287c:	16078263          	beqz	a5,29e0 <dominant_operator+0x1ec>
    2880:	fec42703          	lw	a4,-20(s0)
    2884:	fff00793          	li	a5,-1
    2888:	14f70863          	beq	a4,a5,29d8 <dominant_operator+0x1e4>
    288c:	000fe717          	auipc	a4,0xfe
    2890:	a8470713          	addi	a4,a4,-1404 # 100310 <tokens>
    2894:	fec42783          	lw	a5,-20(s0)
    2898:	00379793          	slli	a5,a5,0x3
    289c:	00f707b3          	add	a5,a4,a5
    28a0:	0007a783          	lw	a5,0(a5)
    28a4:	0ff7f793          	andi	a5,a5,255
    28a8:	00078513          	mv	a0,a5
    28ac:	d55ff0ef          	jal	ra,2600 <priority>
    28b0:	00050493          	mv	s1,a0
    28b4:	000fe717          	auipc	a4,0xfe
    28b8:	a5c70713          	addi	a4,a4,-1444 # 100310 <tokens>
    28bc:	fe842783          	lw	a5,-24(s0)
    28c0:	00379793          	slli	a5,a5,0x3
    28c4:	00f707b3          	add	a5,a4,a5
    28c8:	0007a783          	lw	a5,0(a5)
    28cc:	0ff7f793          	andi	a5,a5,255
    28d0:	00078513          	mv	a0,a5
    28d4:	d2dff0ef          	jal	ra,2600 <priority>
    28d8:	00050793          	mv	a5,a0
    28dc:	10f4e263          	bltu	s1,a5,29e0 <dominant_operator+0x1ec>
    28e0:	fec42783          	lw	a5,-20(s0)
    28e4:	fef42223          	sw	a5,-28(s0)
    28e8:	000fe717          	auipc	a4,0xfe
    28ec:	a2870713          	addi	a4,a4,-1496 # 100310 <tokens>
    28f0:	fe442783          	lw	a5,-28(s0)
    28f4:	00379793          	slli	a5,a5,0x3
    28f8:	00f707b3          	add	a5,a4,a5
    28fc:	0007a703          	lw	a4,0(a5)
    2900:	00300793          	li	a5,3
    2904:	04f70263          	beq	a4,a5,2948 <dominant_operator+0x154>
    2908:	000fe717          	auipc	a4,0xfe
    290c:	a0870713          	addi	a4,a4,-1528 # 100310 <tokens>
    2910:	fe442783          	lw	a5,-28(s0)
    2914:	00379793          	slli	a5,a5,0x3
    2918:	00f707b3          	add	a5,a4,a5
    291c:	0007a703          	lw	a4,0(a5)
    2920:	00400793          	li	a5,4
    2924:	02f70263          	beq	a4,a5,2948 <dominant_operator+0x154>
    2928:	000fe717          	auipc	a4,0xfe
    292c:	9e870713          	addi	a4,a4,-1560 # 100310 <tokens>
    2930:	fe442783          	lw	a5,-28(s0)
    2934:	00379793          	slli	a5,a5,0x3
    2938:	00f707b3          	add	a5,a4,a5
    293c:	0007a703          	lw	a4,0(a5)
    2940:	00b00793          	li	a5,11
    2944:	00f71663          	bne	a4,a5,2950 <dominant_operator+0x15c>
    2948:	00100793          	li	a5,1
    294c:	0080006f          	j	2954 <dominant_operator+0x160>
    2950:	00000793          	li	a5,0
    2954:	0ff7f793          	andi	a5,a5,255
    2958:	08078063          	beqz	a5,29d8 <dominant_operator+0x1e4>
    295c:	fe842783          	lw	a5,-24(s0)
    2960:	fef42023          	sw	a5,-32(s0)
    2964:	000fe717          	auipc	a4,0xfe
    2968:	9ac70713          	addi	a4,a4,-1620 # 100310 <tokens>
    296c:	fe042783          	lw	a5,-32(s0)
    2970:	00379793          	slli	a5,a5,0x3
    2974:	00f707b3          	add	a5,a4,a5
    2978:	0007a703          	lw	a4,0(a5)
    297c:	00300793          	li	a5,3
    2980:	04f70263          	beq	a4,a5,29c4 <dominant_operator+0x1d0>
    2984:	000fe717          	auipc	a4,0xfe
    2988:	98c70713          	addi	a4,a4,-1652 # 100310 <tokens>
    298c:	fe042783          	lw	a5,-32(s0)
    2990:	00379793          	slli	a5,a5,0x3
    2994:	00f707b3          	add	a5,a4,a5
    2998:	0007a703          	lw	a4,0(a5)
    299c:	00400793          	li	a5,4
    29a0:	02f70263          	beq	a4,a5,29c4 <dominant_operator+0x1d0>
    29a4:	000fe717          	auipc	a4,0xfe
    29a8:	96c70713          	addi	a4,a4,-1684 # 100310 <tokens>
    29ac:	fe042783          	lw	a5,-32(s0)
    29b0:	00379793          	slli	a5,a5,0x3
    29b4:	00f707b3          	add	a5,a4,a5
    29b8:	0007a703          	lw	a4,0(a5)
    29bc:	00b00793          	li	a5,11
    29c0:	00f71663          	bne	a4,a5,29cc <dominant_operator+0x1d8>
    29c4:	00100793          	li	a5,1
    29c8:	0080006f          	j	29d0 <dominant_operator+0x1dc>
    29cc:	00000793          	li	a5,0
    29d0:	0ff7f793          	andi	a5,a5,255
    29d4:	00079663          	bnez	a5,29e0 <dominant_operator+0x1ec>
    29d8:	fe842783          	lw	a5,-24(s0)
    29dc:	fef42623          	sw	a5,-20(s0)
    29e0:	fe842783          	lw	a5,-24(s0)
    29e4:	00178793          	addi	a5,a5,1
    29e8:	fef42423          	sw	a5,-24(s0)
    29ec:	fe842703          	lw	a4,-24(s0)
    29f0:	fd842783          	lw	a5,-40(s0)
    29f4:	e2e7d8e3          	bge	a5,a4,2824 <dominant_operator+0x30>
    29f8:	fec42783          	lw	a5,-20(s0)
    29fc:	00078513          	mv	a0,a5
    2a00:	02c12083          	lw	ra,44(sp)
    2a04:	02812403          	lw	s0,40(sp)
    2a08:	02412483          	lw	s1,36(sp)
    2a0c:	03010113          	addi	sp,sp,48
    2a10:	00008067          	ret

00002a14 <eval>:
    2a14:	fc010113          	addi	sp,sp,-64
    2a18:	02112e23          	sw	ra,60(sp)
    2a1c:	02812c23          	sw	s0,56(sp)
    2a20:	04010413          	addi	s0,sp,64
    2a24:	fca42623          	sw	a0,-52(s0)
    2a28:	fcb42423          	sw	a1,-56(s0)
    2a2c:	fcc42223          	sw	a2,-60(s0)
    2a30:	fff00793          	li	a5,-1
    2a34:	fef42623          	sw	a5,-20(s0)
    2a38:	fc442783          	lw	a5,-60(s0)
    2a3c:	00100713          	li	a4,1
    2a40:	00e78023          	sb	a4,0(a5)
    2a44:	fcc42703          	lw	a4,-52(s0)
    2a48:	fc842783          	lw	a5,-56(s0)
    2a4c:	00e7d863          	bge	a5,a4,2a5c <eval+0x48>
    2a50:	fc442783          	lw	a5,-60(s0)
    2a54:	00078023          	sb	zero,0(a5)
    2a58:	4340006f          	j	2e8c <eval+0x478>
    2a5c:	fcc42703          	lw	a4,-52(s0)
    2a60:	fc842783          	lw	a5,-56(s0)
    2a64:	04f71863          	bne	a4,a5,2ab4 <eval+0xa0>
    2a68:	000fe717          	auipc	a4,0xfe
    2a6c:	8a870713          	addi	a4,a4,-1880 # 100310 <tokens>
    2a70:	fcc42783          	lw	a5,-52(s0)
    2a74:	00379793          	slli	a5,a5,0x3
    2a78:	00f707b3          	add	a5,a4,a5
    2a7c:	0007a703          	lw	a4,0(a5)
    2a80:	00200793          	li	a5,2
    2a84:	02f71263          	bne	a4,a5,2aa8 <eval+0x94>
    2a88:	000fe717          	auipc	a4,0xfe
    2a8c:	88870713          	addi	a4,a4,-1912 # 100310 <tokens>
    2a90:	fcc42783          	lw	a5,-52(s0)
    2a94:	00379793          	slli	a5,a5,0x3
    2a98:	00f707b3          	add	a5,a4,a5
    2a9c:	0047a783          	lw	a5,4(a5)
    2aa0:	fef42623          	sw	a5,-20(s0)
    2aa4:	3e80006f          	j	2e8c <eval+0x478>
    2aa8:	fc442783          	lw	a5,-60(s0)
    2aac:	00078023          	sb	zero,0(a5)
    2ab0:	3dc0006f          	j	2e8c <eval+0x478>
    2ab4:	fc842583          	lw	a1,-56(s0)
    2ab8:	fcc42503          	lw	a0,-52(s0)
    2abc:	a39ff0ef          	jal	ra,24f4 <check_parentheses>
    2ac0:	00050793          	mv	a5,a0
    2ac4:	02078663          	beqz	a5,2af0 <eval+0xdc>
    2ac8:	fcc42783          	lw	a5,-52(s0)
    2acc:	00178713          	addi	a4,a5,1
    2ad0:	fc842783          	lw	a5,-56(s0)
    2ad4:	fff78793          	addi	a5,a5,-1
    2ad8:	fc442603          	lw	a2,-60(s0)
    2adc:	00078593          	mv	a1,a5
    2ae0:	00070513          	mv	a0,a4
    2ae4:	f31ff0ef          	jal	ra,2a14 <eval>
    2ae8:	00050793          	mv	a5,a0
    2aec:	3a40006f          	j	2e90 <eval+0x47c>
    2af0:	fc842583          	lw	a1,-56(s0)
    2af4:	fcc42503          	lw	a0,-52(s0)
    2af8:	cfdff0ef          	jal	ra,27f4 <dominant_operator>
    2afc:	fea42423          	sw	a0,-24(s0)
    2b00:	fe842703          	lw	a4,-24(s0)
    2b04:	fff00793          	li	a5,-1
    2b08:	00f71863          	bne	a4,a5,2b18 <eval+0x104>
    2b0c:	fc442783          	lw	a5,-60(s0)
    2b10:	00078023          	sb	zero,0(a5)
    2b14:	3780006f          	j	2e8c <eval+0x478>
    2b18:	fe842703          	lw	a4,-24(s0)
    2b1c:	fcc42783          	lw	a5,-52(s0)
    2b20:	12f71463          	bne	a4,a5,2c48 <eval+0x234>
    2b24:	fe842783          	lw	a5,-24(s0)
    2b28:	fcf42c23          	sw	a5,-40(s0)
    2b2c:	000fd717          	auipc	a4,0xfd
    2b30:	7e470713          	addi	a4,a4,2020 # 100310 <tokens>
    2b34:	fd842783          	lw	a5,-40(s0)
    2b38:	00379793          	slli	a5,a5,0x3
    2b3c:	00f707b3          	add	a5,a4,a5
    2b40:	0007a703          	lw	a4,0(a5)
    2b44:	00300793          	li	a5,3
    2b48:	04f70263          	beq	a4,a5,2b8c <eval+0x178>
    2b4c:	000fd717          	auipc	a4,0xfd
    2b50:	7c470713          	addi	a4,a4,1988 # 100310 <tokens>
    2b54:	fd842783          	lw	a5,-40(s0)
    2b58:	00379793          	slli	a5,a5,0x3
    2b5c:	00f707b3          	add	a5,a4,a5
    2b60:	0007a703          	lw	a4,0(a5)
    2b64:	00400793          	li	a5,4
    2b68:	02f70263          	beq	a4,a5,2b8c <eval+0x178>
    2b6c:	000fd717          	auipc	a4,0xfd
    2b70:	7a470713          	addi	a4,a4,1956 # 100310 <tokens>
    2b74:	fd842783          	lw	a5,-40(s0)
    2b78:	00379793          	slli	a5,a5,0x3
    2b7c:	00f707b3          	add	a5,a4,a5
    2b80:	0007a703          	lw	a4,0(a5)
    2b84:	00b00793          	li	a5,11
    2b88:	00f71663          	bne	a4,a5,2b94 <eval+0x180>
    2b8c:	00100793          	li	a5,1
    2b90:	0080006f          	j	2b98 <eval+0x184>
    2b94:	00000793          	li	a5,0
    2b98:	0ff7f793          	andi	a5,a5,255
    2b9c:	0a078663          	beqz	a5,2c48 <eval+0x234>
    2ba0:	fe842783          	lw	a5,-24(s0)
    2ba4:	00178793          	addi	a5,a5,1
    2ba8:	fc442603          	lw	a2,-60(s0)
    2bac:	fc842583          	lw	a1,-56(s0)
    2bb0:	00078513          	mv	a0,a5
    2bb4:	e61ff0ef          	jal	ra,2a14 <eval>
    2bb8:	fea42223          	sw	a0,-28(s0)
    2bbc:	fc442783          	lw	a5,-60(s0)
    2bc0:	0007c783          	lbu	a5,0(a5)
    2bc4:	06078e63          	beqz	a5,2c40 <eval+0x22c>
    2bc8:	000fd717          	auipc	a4,0xfd
    2bcc:	74870713          	addi	a4,a4,1864 # 100310 <tokens>
    2bd0:	fe842783          	lw	a5,-24(s0)
    2bd4:	00379793          	slli	a5,a5,0x3
    2bd8:	00f707b3          	add	a5,a4,a5
    2bdc:	0007a783          	lw	a5,0(a5)
    2be0:	00b00713          	li	a4,11
    2be4:	02e78e63          	beq	a5,a4,2c20 <eval+0x20c>
    2be8:	00b00713          	li	a4,11
    2bec:	04f74463          	blt	a4,a5,2c34 <eval+0x220>
    2bf0:	00300713          	li	a4,3
    2bf4:	00e78863          	beq	a5,a4,2c04 <eval+0x1f0>
    2bf8:	00400713          	li	a4,4
    2bfc:	00e78a63          	beq	a5,a4,2c10 <eval+0x1fc>
    2c00:	0340006f          	j	2c34 <eval+0x220>
    2c04:	fe442783          	lw	a5,-28(s0)
    2c08:	fef42623          	sw	a5,-20(s0)
    2c0c:	0380006f          	j	2c44 <eval+0x230>
    2c10:	fe442783          	lw	a5,-28(s0)
    2c14:	40f007b3          	neg	a5,a5
    2c18:	fef42623          	sw	a5,-20(s0)
    2c1c:	0280006f          	j	2c44 <eval+0x230>
    2c20:	fec42783          	lw	a5,-20(s0)
    2c24:	0017b793          	seqz	a5,a5
    2c28:	0ff7f793          	andi	a5,a5,255
    2c2c:	fef42623          	sw	a5,-20(s0)
    2c30:	0140006f          	j	2c44 <eval+0x230>
    2c34:	fc442783          	lw	a5,-60(s0)
    2c38:	00078023          	sb	zero,0(a5)
    2c3c:	2500006f          	j	2e8c <eval+0x478>
    2c40:	00000013          	nop
    2c44:	2480006f          	j	2e8c <eval+0x478>
    2c48:	fe842783          	lw	a5,-24(s0)
    2c4c:	fff78793          	addi	a5,a5,-1
    2c50:	fc442603          	lw	a2,-60(s0)
    2c54:	00078593          	mv	a1,a5
    2c58:	fcc42503          	lw	a0,-52(s0)
    2c5c:	db9ff0ef          	jal	ra,2a14 <eval>
    2c60:	fea42023          	sw	a0,-32(s0)
    2c64:	fe842783          	lw	a5,-24(s0)
    2c68:	00178793          	addi	a5,a5,1
    2c6c:	fd740713          	addi	a4,s0,-41
    2c70:	00070613          	mv	a2,a4
    2c74:	fc842583          	lw	a1,-56(s0)
    2c78:	00078513          	mv	a0,a5
    2c7c:	d99ff0ef          	jal	ra,2a14 <eval>
    2c80:	fca42e23          	sw	a0,-36(s0)
    2c84:	fc442783          	lw	a5,-60(s0)
    2c88:	0007c703          	lbu	a4,0(a5)
    2c8c:	fd744783          	lbu	a5,-41(s0)
    2c90:	00f777b3          	and	a5,a4,a5
    2c94:	0ff7f713          	andi	a4,a5,255
    2c98:	fc442783          	lw	a5,-60(s0)
    2c9c:	00e78023          	sb	a4,0(a5)
    2ca0:	fc442783          	lw	a5,-60(s0)
    2ca4:	0007c783          	lbu	a5,0(a5)
    2ca8:	1e078063          	beqz	a5,2e88 <eval+0x474>
    2cac:	000fd717          	auipc	a4,0xfd
    2cb0:	66470713          	addi	a4,a4,1636 # 100310 <tokens>
    2cb4:	fe842783          	lw	a5,-24(s0)
    2cb8:	00379793          	slli	a5,a5,0x3
    2cbc:	00f707b3          	add	a5,a4,a5
    2cc0:	0007a783          	lw	a5,0(a5)
    2cc4:	02f00713          	li	a4,47
    2cc8:	1af76a63          	bltu	a4,a5,2e7c <eval+0x468>
    2ccc:	00279713          	slli	a4,a5,0x2
    2cd0:	000fd797          	auipc	a5,0xfd
    2cd4:	50c78793          	addi	a5,a5,1292 # 1001dc <_etext+0xfd250>
    2cd8:	00f707b3          	add	a5,a4,a5
    2cdc:	0007a703          	lw	a4,0(a5)
    2ce0:	000fd797          	auipc	a5,0xfd
    2ce4:	4fc78793          	addi	a5,a5,1276 # 1001dc <_etext+0xfd250>
    2ce8:	00f707b3          	add	a5,a4,a5
    2cec:	00078067          	jr	a5
    2cf0:	fe042703          	lw	a4,-32(s0)
    2cf4:	fdc42783          	lw	a5,-36(s0)
    2cf8:	00f707b3          	add	a5,a4,a5
    2cfc:	fef42623          	sw	a5,-20(s0)
    2d00:	18c0006f          	j	2e8c <eval+0x478>
    2d04:	fe042703          	lw	a4,-32(s0)
    2d08:	fdc42783          	lw	a5,-36(s0)
    2d0c:	40f707b3          	sub	a5,a4,a5
    2d10:	fef42623          	sw	a5,-20(s0)
    2d14:	1780006f          	j	2e8c <eval+0x478>
    2d18:	fe042783          	lw	a5,-32(s0)
    2d1c:	fdc42703          	lw	a4,-36(s0)
    2d20:	00070593          	mv	a1,a4
    2d24:	00078513          	mv	a0,a5
    2d28:	dc9fe0ef          	jal	ra,1af0 <__mulsi3>
    2d2c:	00050793          	mv	a5,a0
    2d30:	fef42623          	sw	a5,-20(s0)
    2d34:	1580006f          	j	2e8c <eval+0x478>
    2d38:	fe042783          	lw	a5,-32(s0)
    2d3c:	fdc42703          	lw	a4,-36(s0)
    2d40:	00070593          	mv	a1,a4
    2d44:	00078513          	mv	a0,a5
    2d48:	efdfe0ef          	jal	ra,1c44 <__udivsi3>
    2d4c:	00050793          	mv	a5,a0
    2d50:	fef42623          	sw	a5,-20(s0)
    2d54:	1380006f          	j	2e8c <eval+0x478>
    2d58:	fe042703          	lw	a4,-32(s0)
    2d5c:	fdc42783          	lw	a5,-36(s0)
    2d60:	40f707b3          	sub	a5,a4,a5
    2d64:	0017b793          	seqz	a5,a5
    2d68:	0ff7f793          	andi	a5,a5,255
    2d6c:	fef42623          	sw	a5,-20(s0)
    2d70:	11c0006f          	j	2e8c <eval+0x478>
    2d74:	fe042703          	lw	a4,-32(s0)
    2d78:	fdc42783          	lw	a5,-36(s0)
    2d7c:	40f707b3          	sub	a5,a4,a5
    2d80:	00f037b3          	snez	a5,a5
    2d84:	0ff7f793          	andi	a5,a5,255
    2d88:	fef42623          	sw	a5,-20(s0)
    2d8c:	1000006f          	j	2e8c <eval+0x478>
    2d90:	fe042703          	lw	a4,-32(s0)
    2d94:	fdc42783          	lw	a5,-36(s0)
    2d98:	00e7a7b3          	slt	a5,a5,a4
    2d9c:	0ff7f793          	andi	a5,a5,255
    2da0:	fef42623          	sw	a5,-20(s0)
    2da4:	0e80006f          	j	2e8c <eval+0x478>
    2da8:	fe042703          	lw	a4,-32(s0)
    2dac:	fdc42783          	lw	a5,-36(s0)
    2db0:	00f727b3          	slt	a5,a4,a5
    2db4:	0ff7f793          	andi	a5,a5,255
    2db8:	fef42623          	sw	a5,-20(s0)
    2dbc:	0d00006f          	j	2e8c <eval+0x478>
    2dc0:	fe042703          	lw	a4,-32(s0)
    2dc4:	fdc42783          	lw	a5,-36(s0)
    2dc8:	00e7a7b3          	slt	a5,a5,a4
    2dcc:	0017c793          	xori	a5,a5,1
    2dd0:	0ff7f793          	andi	a5,a5,255
    2dd4:	fef42623          	sw	a5,-20(s0)
    2dd8:	0b40006f          	j	2e8c <eval+0x478>
    2ddc:	fe042703          	lw	a4,-32(s0)
    2de0:	fdc42783          	lw	a5,-36(s0)
    2de4:	00f727b3          	slt	a5,a4,a5
    2de8:	0017c793          	xori	a5,a5,1
    2dec:	0ff7f793          	andi	a5,a5,255
    2df0:	fef42623          	sw	a5,-20(s0)
    2df4:	0980006f          	j	2e8c <eval+0x478>
    2df8:	fe042783          	lw	a5,-32(s0)
    2dfc:	00078a63          	beqz	a5,2e10 <eval+0x3fc>
    2e00:	fdc42783          	lw	a5,-36(s0)
    2e04:	00078663          	beqz	a5,2e10 <eval+0x3fc>
    2e08:	00100793          	li	a5,1
    2e0c:	0080006f          	j	2e14 <eval+0x400>
    2e10:	00000793          	li	a5,0
    2e14:	fef42623          	sw	a5,-20(s0)
    2e18:	0740006f          	j	2e8c <eval+0x478>
    2e1c:	fe042783          	lw	a5,-32(s0)
    2e20:	00079663          	bnez	a5,2e2c <eval+0x418>
    2e24:	fdc42783          	lw	a5,-36(s0)
    2e28:	00078663          	beqz	a5,2e34 <eval+0x420>
    2e2c:	00100793          	li	a5,1
    2e30:	0080006f          	j	2e38 <eval+0x424>
    2e34:	00000793          	li	a5,0
    2e38:	fef42623          	sw	a5,-20(s0)
    2e3c:	0500006f          	j	2e8c <eval+0x478>
    2e40:	fe042703          	lw	a4,-32(s0)
    2e44:	fdc42783          	lw	a5,-36(s0)
    2e48:	00f777b3          	and	a5,a4,a5
    2e4c:	fef42623          	sw	a5,-20(s0)
    2e50:	03c0006f          	j	2e8c <eval+0x478>
    2e54:	fe042703          	lw	a4,-32(s0)
    2e58:	fdc42783          	lw	a5,-36(s0)
    2e5c:	00f767b3          	or	a5,a4,a5
    2e60:	fef42623          	sw	a5,-20(s0)
    2e64:	0280006f          	j	2e8c <eval+0x478>
    2e68:	fe042703          	lw	a4,-32(s0)
    2e6c:	fdc42783          	lw	a5,-36(s0)
    2e70:	00f747b3          	xor	a5,a4,a5
    2e74:	fef42623          	sw	a5,-20(s0)
    2e78:	0140006f          	j	2e8c <eval+0x478>
    2e7c:	fc442783          	lw	a5,-60(s0)
    2e80:	00078023          	sb	zero,0(a5)
    2e84:	0080006f          	j	2e8c <eval+0x478>
    2e88:	00000013          	nop
    2e8c:	fec42783          	lw	a5,-20(s0)
    2e90:	00078513          	mv	a0,a5
    2e94:	03c12083          	lw	ra,60(sp)
    2e98:	03812403          	lw	s0,56(sp)
    2e9c:	04010113          	addi	sp,sp,64
    2ea0:	00008067          	ret

00002ea4 <calc_expr>:
    2ea4:	fe010113          	addi	sp,sp,-32
    2ea8:	00112e23          	sw	ra,28(sp)
    2eac:	00812c23          	sw	s0,24(sp)
    2eb0:	02010413          	addi	s0,sp,32
    2eb4:	fea42623          	sw	a0,-20(s0)
    2eb8:	feb42423          	sw	a1,-24(s0)
    2ebc:	fec42503          	lw	a0,-20(s0)
    2ec0:	dcdfe0ef          	jal	ra,1c8c <make_token>
    2ec4:	00050793          	mv	a5,a0
    2ec8:	00079a63          	bnez	a5,2edc <calc_expr+0x38>
    2ecc:	fe842783          	lw	a5,-24(s0)
    2ed0:	00078023          	sb	zero,0(a5)
    2ed4:	00000793          	li	a5,0
    2ed8:	02c0006f          	j	2f04 <calc_expr+0x60>
    2edc:	c94ff0ef          	jal	ra,2370 <pre_process>
    2ee0:	000fd797          	auipc	a5,0xfd
    2ee4:	55878793          	addi	a5,a5,1368 # 100438 <nr_token>
    2ee8:	0007a783          	lw	a5,0(a5)
    2eec:	fff78793          	addi	a5,a5,-1
    2ef0:	fe842603          	lw	a2,-24(s0)
    2ef4:	00078593          	mv	a1,a5
    2ef8:	00000513          	li	a0,0
    2efc:	b19ff0ef          	jal	ra,2a14 <eval>
    2f00:	00050793          	mv	a5,a0
    2f04:	00078513          	mv	a0,a5
    2f08:	01c12083          	lw	ra,28(sp)
    2f0c:	01812403          	lw	s0,24(sp)
    2f10:	02010113          	addi	sp,sp,32
    2f14:	00008067          	ret

00002f18 <int_handler_entrance>:
    2f18:	340f9ff3          	csrrw	t6,mscratch,t6
    2f1c:	00000013          	nop
    2f20:	00000013          	nop
    2f24:	00afa023          	sw	a0,0(t6)
    2f28:	00bfa223          	sw	a1,4(t6)
    2f2c:	00cfa423          	sw	a2,8(t6)
    2f30:	00dfa623          	sw	a3,12(t6)
    2f34:	00efa823          	sw	a4,16(t6)
    2f38:	00ffaa23          	sw	a5,20(t6)
    2f3c:	010fac23          	sw	a6,24(t6)
    2f40:	011fae23          	sw	a7,28(t6)
    2f44:	021fa023          	sw	ra,32(t6)
    2f48:	028fa223          	sw	s0,36(t6)
    2f4c:	029fa423          	sw	s1,40(t6)
    2f50:	34202573          	csrr	a0,mcause
    2f54:	e31fd0ef          	jal	ra,d84 <irq_handler>
    2f58:	000fa503          	lw	a0,0(t6)
    2f5c:	004fa583          	lw	a1,4(t6)
    2f60:	008fa603          	lw	a2,8(t6)
    2f64:	00cfa683          	lw	a3,12(t6)
    2f68:	010fa703          	lw	a4,16(t6)
    2f6c:	014fa783          	lw	a5,20(t6)
    2f70:	018fa803          	lw	a6,24(t6)
    2f74:	01cfa883          	lw	a7,28(t6)
    2f78:	020fa083          	lw	ra,32(t6)
    2f7c:	024fa403          	lw	s0,36(t6)
    2f80:	028fa483          	lw	s1,40(t6)
    2f84:	340f9ff3          	csrrw	t6,mscratch,t6
    2f88:	30200073          	mret

Disassembly of section .data:

001002b4 <num2hexoutdict>:
  1002b4:	0040                	addi	s0,sp,4
  1002b6:	0000                	unimp
  1002b8:	0079                	c.nop	30
  1002ba:	0000                	unimp
  1002bc:	0024                	addi	s1,sp,8
  1002be:	0000                	unimp
  1002c0:	0030                	addi	a2,sp,8
  1002c2:	0000                	unimp
  1002c4:	0019                	c.nop	6
  1002c6:	0000                	unimp
  1002c8:	0012                	c.slli	zero,0x4
  1002ca:	0000                	unimp
  1002cc:	0002                	c.slli64	zero
  1002ce:	0000                	unimp
  1002d0:	0078                	addi	a4,sp,12
  1002d2:	0000                	unimp
  1002d4:	0000                	unimp
  1002d6:	0000                	unimp
  1002d8:	0010                	0x10
  1002da:	0000                	unimp
  1002dc:	0008                	0x8
  1002de:	0000                	unimp
  1002e0:	00000003          	lb	zero,0(zero) # 0 <entry>
  1002e4:	0046                	c.slli	zero,0x11
  1002e6:	0000                	unimp
  1002e8:	0021                	c.nop	8
  1002ea:	0000                	unimp
  1002ec:	0006                	c.slli	zero,0x1
  1002ee:	0000                	unimp
  1002f0:	000e                	c.slli	zero,0x3
  1002f2:	0000                	unimp
