
main.elf:     file format elf32-littleriscv


Disassembly of section .text:

00000000 <entry>:
   0:	ff010113          	addi	sp,sp,-16
   4:	00112623          	sw	ra,12(sp)
   8:	00812423          	sw	s0,8(sp)
   c:	01010413          	addi	s0,sp,16
  10:	00120137          	lui	sp,0x120
  14:	ffc10113          	addi	sp,sp,-4 # 11fffc <_end+0x1f7fc>
  18:	774000ef          	jal	ra,78c <init_io_mm>
  1c:	6b8000ef          	jal	ra,6d4 <init_CSR>
  20:	018000ef          	jal	ra,38 <main>
  24:	00000013          	nop
  28:	00c12083          	lw	ra,12(sp)
  2c:	00812403          	lw	s0,8(sp)
  30:	01010113          	addi	sp,sp,16
  34:	00008067          	ret

00000038 <main>:
  38:	ff010113          	addi	sp,sp,-16
  3c:	00112623          	sw	ra,12(sp)
  40:	00812423          	sw	s0,8(sp)
  44:	01010413          	addi	s0,sp,16
  48:	7a8000ef          	jal	ra,7f0 <ui_mainloop>
  4c:	00000793          	li	a5,0
  50:	00078513          	mv	a0,a5
  54:	00c12083          	lw	ra,12(sp)
  58:	00812403          	lw	s0,8(sp)
  5c:	01010113          	addi	sp,sp,16
  60:	00008067          	ret

00000064 <putc>:
  64:	fe010113          	addi	sp,sp,-32
  68:	00112e23          	sw	ra,28(sp)
  6c:	00812c23          	sw	s0,24(sp)
  70:	02010413          	addi	s0,sp,32
  74:	00050793          	mv	a5,a0
  78:	00058713          	mv	a4,a1
  7c:	fef407a3          	sb	a5,-17(s0)
  80:	00070793          	mv	a5,a4
  84:	fef40723          	sb	a5,-18(s0)
  88:	fef44703          	lbu	a4,-17(s0)
  8c:	00a00793          	li	a5,10
  90:	04f71063          	bne	a4,a5,d0 <putc+0x6c>
  94:	00100797          	auipc	a5,0x100
  98:	00478793          	addi	a5,a5,4 # 100098 <monitor_write_cursor>
  9c:	0007a783          	lw	a5,0(a5)
  a0:	fc07f793          	andi	a5,a5,-64
  a4:	04078713          	addi	a4,a5,64
  a8:	00100797          	auipc	a5,0x100
  ac:	ff078793          	addi	a5,a5,-16 # 100098 <monitor_write_cursor>
  b0:	00e7a023          	sw	a4,0(a5)
  b4:	00100797          	auipc	a5,0x100
  b8:	fe478793          	addi	a5,a5,-28 # 100098 <monitor_write_cursor>
  bc:	0007a703          	lw	a4,0(a5)
  c0:	78000793          	li	a5,1920
  c4:	0cf71263          	bne	a4,a5,188 <putc+0x124>
  c8:	238000ef          	jal	ra,300 <scroll_screen>
  cc:	0bc0006f          	j	188 <putc+0x124>
  d0:	fef44703          	lbu	a4,-17(s0)
  d4:	00900793          	li	a5,9
  d8:	00f71c63          	bne	a4,a5,f0 <putc+0x8c>
  dc:	00400593          	li	a1,4
  e0:	00100517          	auipc	a0,0x100
  e4:	f2050513          	addi	a0,a0,-224 # 100000 <_etext+0xff058>
  e8:	0b4000ef          	jal	ra,19c <print>
  ec:	09c0006f          	j	188 <putc+0x124>
  f0:	fef44703          	lbu	a4,-17(s0)
  f4:	00800793          	li	a5,8
  f8:	04f71a63          	bne	a4,a5,14c <putc+0xe8>
  fc:	00100797          	auipc	a5,0x100
 100:	fa078793          	addi	a5,a5,-96 # 10009c <output_front_cursor>
 104:	0007a703          	lw	a4,0(a5)
 108:	00100797          	auipc	a5,0x100
 10c:	f9078793          	addi	a5,a5,-112 # 100098 <monitor_write_cursor>
 110:	0007a783          	lw	a5,0(a5)
 114:	06f77a63          	bgeu	a4,a5,188 <putc+0x124>
 118:	00100797          	auipc	a5,0x100
 11c:	f8078793          	addi	a5,a5,-128 # 100098 <monitor_write_cursor>
 120:	0007a783          	lw	a5,0(a5)
 124:	fff78713          	addi	a4,a5,-1
 128:	00100797          	auipc	a5,0x100
 12c:	f7078793          	addi	a5,a5,-144 # 100098 <monitor_write_cursor>
 130:	00e7a023          	sw	a4,0(a5)
 134:	00100797          	auipc	a5,0x100
 138:	f6478793          	addi	a5,a5,-156 # 100098 <monitor_write_cursor>
 13c:	0007a783          	lw	a5,0(a5)
 140:	00078513          	mv	a0,a5
 144:	484000ef          	jal	ra,5c8 <_erasec>
 148:	0400006f          	j	188 <putc+0x124>
 14c:	00100797          	auipc	a5,0x100
 150:	f4c78793          	addi	a5,a5,-180 # 100098 <monitor_write_cursor>
 154:	0007a683          	lw	a3,0(a5)
 158:	fee44703          	lbu	a4,-18(s0)
 15c:	fef44783          	lbu	a5,-17(s0)
 160:	00068613          	mv	a2,a3
 164:	00070593          	mv	a1,a4
 168:	00078513          	mv	a0,a5
 16c:	400000ef          	jal	ra,56c <_setc>
 170:	00100797          	auipc	a5,0x100
 174:	f2878793          	addi	a5,a5,-216 # 100098 <monitor_write_cursor>
 178:	0007a703          	lw	a4,0(a5)
 17c:	78000793          	li	a5,1920
 180:	00f71463          	bne	a4,a5,188 <putc+0x124>
 184:	17c000ef          	jal	ra,300 <scroll_screen>
 188:	00000013          	nop
 18c:	01c12083          	lw	ra,28(sp)
 190:	01812403          	lw	s0,24(sp)
 194:	02010113          	addi	sp,sp,32
 198:	00008067          	ret

0000019c <print>:
 19c:	fd010113          	addi	sp,sp,-48
 1a0:	02112623          	sw	ra,44(sp)
 1a4:	02812423          	sw	s0,40(sp)
 1a8:	03010413          	addi	s0,sp,48
 1ac:	fca42e23          	sw	a0,-36(s0)
 1b0:	00058793          	mv	a5,a1
 1b4:	fcf40da3          	sb	a5,-37(s0)
 1b8:	fdc42783          	lw	a5,-36(s0)
 1bc:	0007c783          	lbu	a5,0(a5)
 1c0:	fef407a3          	sb	a5,-17(s0)
 1c4:	0300006f          	j	1f4 <print+0x58>
 1c8:	fdb44703          	lbu	a4,-37(s0)
 1cc:	fef44783          	lbu	a5,-17(s0)
 1d0:	00070593          	mv	a1,a4
 1d4:	00078513          	mv	a0,a5
 1d8:	e8dff0ef          	jal	ra,64 <putc>
 1dc:	fdc42783          	lw	a5,-36(s0)
 1e0:	00178793          	addi	a5,a5,1
 1e4:	fcf42e23          	sw	a5,-36(s0)
 1e8:	fdc42783          	lw	a5,-36(s0)
 1ec:	0007c783          	lbu	a5,0(a5)
 1f0:	fef407a3          	sb	a5,-17(s0)
 1f4:	fef44783          	lbu	a5,-17(s0)
 1f8:	fc0798e3          	bnez	a5,1c8 <print+0x2c>
 1fc:	00000013          	nop
 200:	00000013          	nop
 204:	02c12083          	lw	ra,44(sp)
 208:	02812403          	lw	s0,40(sp)
 20c:	03010113          	addi	sp,sp,48
 210:	00008067          	ret

00000214 <getc>:
 214:	fe010113          	addi	sp,sp,-32
 218:	00112e23          	sw	ra,28(sp)
 21c:	00812c23          	sw	s0,24(sp)
 220:	02010413          	addi	s0,sp,32
 224:	00000013          	nop
 228:	424000ef          	jal	ra,64c <_next_key_arrived>
 22c:	00050793          	mv	a5,a0
 230:	fe078ce3          	beqz	a5,228 <getc+0x14>
 234:	00100797          	auipc	a5,0x100
 238:	e7478793          	addi	a5,a5,-396 # 1000a8 <kb_info>
 23c:	0007c783          	lbu	a5,0(a5)
 240:	fef407a3          	sb	a5,-17(s0)
 244:	00100797          	auipc	a5,0x100
 248:	e5c78793          	addi	a5,a5,-420 # 1000a0 <input_controller>
 24c:	fef44703          	lbu	a4,-17(s0)
 250:	00e78023          	sb	a4,0(a5)
 254:	00100797          	auipc	a5,0x100
 258:	e4078793          	addi	a5,a5,-448 # 100094 <sys_time>
 25c:	0007a703          	lw	a4,0(a5)
 260:	00100797          	auipc	a5,0x100
 264:	e4078793          	addi	a5,a5,-448 # 1000a0 <input_controller>
 268:	00e7a223          	sw	a4,4(a5)
 26c:	fef44783          	lbu	a5,-17(s0)
 270:	00400593          	li	a1,4
 274:	00078513          	mv	a0,a5
 278:	dedff0ef          	jal	ra,64 <putc>
 27c:	fef44783          	lbu	a5,-17(s0)
 280:	00078513          	mv	a0,a5
 284:	01c12083          	lw	ra,28(sp)
 288:	01812403          	lw	s0,24(sp)
 28c:	02010113          	addi	sp,sp,32
 290:	00008067          	ret

00000294 <getline>:
 294:	fd010113          	addi	sp,sp,-48
 298:	02112623          	sw	ra,44(sp)
 29c:	02812423          	sw	s0,40(sp)
 2a0:	03010413          	addi	s0,sp,48
 2a4:	fca42e23          	sw	a0,-36(s0)
 2a8:	fe042623          	sw	zero,-20(s0)
 2ac:	0240006f          	j	2d0 <getline+0x3c>
 2b0:	fec42783          	lw	a5,-20(s0)
 2b4:	00178713          	addi	a4,a5,1
 2b8:	fee42623          	sw	a4,-20(s0)
 2bc:	00078713          	mv	a4,a5
 2c0:	fdc42783          	lw	a5,-36(s0)
 2c4:	00e787b3          	add	a5,a5,a4
 2c8:	feb44703          	lbu	a4,-21(s0)
 2cc:	00e78023          	sb	a4,0(a5)
 2d0:	f45ff0ef          	jal	ra,214 <getc>
 2d4:	00050793          	mv	a5,a0
 2d8:	fef405a3          	sb	a5,-21(s0)
 2dc:	feb44703          	lbu	a4,-21(s0)
 2e0:	00a00793          	li	a5,10
 2e4:	fcf716e3          	bne	a4,a5,2b0 <getline+0x1c>
 2e8:	00000013          	nop
 2ec:	00000013          	nop
 2f0:	02c12083          	lw	ra,44(sp)
 2f4:	02812403          	lw	s0,40(sp)
 2f8:	03010113          	addi	sp,sp,48
 2fc:	00008067          	ret

00000300 <scroll_screen>:
 300:	fe010113          	addi	sp,sp,-32
 304:	00112e23          	sw	ra,28(sp)
 308:	00812c23          	sw	s0,24(sp)
 30c:	02010413          	addi	s0,sp,32
 310:	00100797          	auipc	a5,0x100
 314:	d9c78793          	addi	a5,a5,-612 # 1000ac <vga_info>
 318:	0007a783          	lw	a5,0(a5)
 31c:	00178713          	addi	a4,a5,1
 320:	00100797          	auipc	a5,0x100
 324:	d8c78793          	addi	a5,a5,-628 # 1000ac <vga_info>
 328:	00e7a023          	sw	a4,0(a5)
 32c:	00100797          	auipc	a5,0x100
 330:	d8078793          	addi	a5,a5,-640 # 1000ac <vga_info>
 334:	0007a703          	lw	a4,0(a5)
 338:	01e00793          	li	a5,30
 33c:	00f71863          	bne	a4,a5,34c <scroll_screen+0x4c>
 340:	00100797          	auipc	a5,0x100
 344:	d6c78793          	addi	a5,a5,-660 # 1000ac <vga_info>
 348:	0007a023          	sw	zero,0(a5)
 34c:	00100797          	auipc	a5,0x100
 350:	d4c78793          	addi	a5,a5,-692 # 100098 <monitor_write_cursor>
 354:	0007a783          	lw	a5,0(a5)
 358:	fc078713          	addi	a4,a5,-64
 35c:	00100797          	auipc	a5,0x100
 360:	d3c78793          	addi	a5,a5,-708 # 100098 <monitor_write_cursor>
 364:	00e7a023          	sw	a4,0(a5)
 368:	00100797          	auipc	a5,0x100
 36c:	d3078793          	addi	a5,a5,-720 # 100098 <monitor_write_cursor>
 370:	0007a783          	lw	a5,0(a5)
 374:	fef42623          	sw	a5,-20(s0)
 378:	0240006f          	j	39c <scroll_screen+0x9c>
 37c:	fec42783          	lw	a5,-20(s0)
 380:	00078613          	mv	a2,a5
 384:	00400593          	li	a1,4
 388:	02000513          	li	a0,32
 38c:	1e0000ef          	jal	ra,56c <_setc>
 390:	fec42783          	lw	a5,-20(s0)
 394:	00178793          	addi	a5,a5,1
 398:	fef42623          	sw	a5,-20(s0)
 39c:	00100797          	auipc	a5,0x100
 3a0:	cfc78793          	addi	a5,a5,-772 # 100098 <monitor_write_cursor>
 3a4:	0007a783          	lw	a5,0(a5)
 3a8:	04078713          	addi	a4,a5,64
 3ac:	fec42783          	lw	a5,-20(s0)
 3b0:	fce7e6e3          	bltu	a5,a4,37c <scroll_screen+0x7c>
 3b4:	0b4000ef          	jal	ra,468 <_update_cursor>
 3b8:	00100797          	auipc	a5,0x100
 3bc:	cd478793          	addi	a5,a5,-812 # 10008c <p_vga_info>
 3c0:	0007a783          	lw	a5,0(a5)
 3c4:	00100717          	auipc	a4,0x100
 3c8:	ce870713          	addi	a4,a4,-792 # 1000ac <vga_info>
 3cc:	00072683          	lw	a3,0(a4)
 3d0:	00d7a023          	sw	a3,0(a5)
 3d4:	00472703          	lw	a4,4(a4)
 3d8:	00e7a223          	sw	a4,4(a5)
 3dc:	00000013          	nop
 3e0:	01c12083          	lw	ra,28(sp)
 3e4:	01812403          	lw	s0,24(sp)
 3e8:	02010113          	addi	sp,sp,32
 3ec:	00008067          	ret

000003f0 <clear_screen>:
 3f0:	fe010113          	addi	sp,sp,-32
 3f4:	00112e23          	sw	ra,28(sp)
 3f8:	00812c23          	sw	s0,24(sp)
 3fc:	02010413          	addi	s0,sp,32
 400:	00100797          	auipc	a5,0x100
 404:	cac78793          	addi	a5,a5,-852 # 1000ac <vga_info>
 408:	0007a783          	lw	a5,0(a5)
 40c:	00679793          	slli	a5,a5,0x6
 410:	fef42623          	sw	a5,-20(s0)
 414:	fec42783          	lw	a5,-20(s0)
 418:	78078793          	addi	a5,a5,1920
 41c:	fef42423          	sw	a5,-24(s0)
 420:	0240006f          	j	444 <clear_screen+0x54>
 424:	fec42783          	lw	a5,-20(s0)
 428:	00078613          	mv	a2,a5
 42c:	00400593          	li	a1,4
 430:	02000513          	li	a0,32
 434:	138000ef          	jal	ra,56c <_setc>
 438:	fec42783          	lw	a5,-20(s0)
 43c:	00178793          	addi	a5,a5,1
 440:	fef42623          	sw	a5,-20(s0)
 444:	fec42703          	lw	a4,-20(s0)
 448:	fe842783          	lw	a5,-24(s0)
 44c:	fcf74ce3          	blt	a4,a5,424 <clear_screen+0x34>
 450:	00000013          	nop
 454:	00000013          	nop
 458:	01c12083          	lw	ra,28(sp)
 45c:	01812403          	lw	s0,24(sp)
 460:	02010113          	addi	sp,sp,32
 464:	00008067          	ret

00000468 <_update_cursor>:
 468:	fe010113          	addi	sp,sp,-32
 46c:	00812e23          	sw	s0,28(sp)
 470:	02010413          	addi	s0,sp,32
 474:	00100797          	auipc	a5,0x100
 478:	c2478793          	addi	a5,a5,-988 # 100098 <monitor_write_cursor>
 47c:	0007a783          	lw	a5,0(a5)
 480:	0067d793          	srli	a5,a5,0x6
 484:	fef42623          	sw	a5,-20(s0)
 488:	00100797          	auipc	a5,0x100
 48c:	c1078793          	addi	a5,a5,-1008 # 100098 <monitor_write_cursor>
 490:	0007a783          	lw	a5,0(a5)
 494:	03f7f793          	andi	a5,a5,63
 498:	fef42423          	sw	a5,-24(s0)
 49c:	fec42783          	lw	a5,-20(s0)
 4a0:	01079793          	slli	a5,a5,0x10
 4a4:	0107d793          	srli	a5,a5,0x10
 4a8:	00479793          	slli	a5,a5,0x4
 4ac:	01079793          	slli	a5,a5,0x10
 4b0:	0107d793          	srli	a5,a5,0x10
 4b4:	00178793          	addi	a5,a5,1
 4b8:	01079713          	slli	a4,a5,0x10
 4bc:	01075713          	srli	a4,a4,0x10
 4c0:	00100797          	auipc	a5,0x100
 4c4:	bec78793          	addi	a5,a5,-1044 # 1000ac <vga_info>
 4c8:	00e79323          	sh	a4,6(a5)
 4cc:	fe842703          	lw	a4,-24(s0)
 4d0:	03f00793          	li	a5,63
 4d4:	04f70263          	beq	a4,a5,518 <_update_cursor+0xb0>
 4d8:	fe842783          	lw	a5,-24(s0)
 4dc:	01079793          	slli	a5,a5,0x10
 4e0:	0107d793          	srli	a5,a5,0x10
 4e4:	00078713          	mv	a4,a5
 4e8:	00070793          	mv	a5,a4
 4ec:	00379793          	slli	a5,a5,0x3
 4f0:	00e787b3          	add	a5,a5,a4
 4f4:	01079793          	slli	a5,a5,0x10
 4f8:	0107d793          	srli	a5,a5,0x10
 4fc:	00178793          	addi	a5,a5,1
 500:	01079713          	slli	a4,a5,0x10
 504:	01075713          	srli	a4,a4,0x10
 508:	00100797          	auipc	a5,0x100
 50c:	ba478793          	addi	a5,a5,-1116 # 1000ac <vga_info>
 510:	00e79223          	sh	a4,4(a5)
 514:	0140006f          	j	528 <_update_cursor+0xc0>
 518:	00100797          	auipc	a5,0x100
 51c:	b9478793          	addi	a5,a5,-1132 # 1000ac <vga_info>
 520:	00100713          	li	a4,1
 524:	00e79223          	sh	a4,4(a5)
 528:	00000013          	nop
 52c:	01c12403          	lw	s0,28(sp)
 530:	02010113          	addi	sp,sp,32
 534:	00008067          	ret

00000538 <lock_output_front>:
 538:	ff010113          	addi	sp,sp,-16
 53c:	00812623          	sw	s0,12(sp)
 540:	01010413          	addi	s0,sp,16
 544:	00100797          	auipc	a5,0x100
 548:	b5478793          	addi	a5,a5,-1196 # 100098 <monitor_write_cursor>
 54c:	0007a703          	lw	a4,0(a5)
 550:	00100797          	auipc	a5,0x100
 554:	b4c78793          	addi	a5,a5,-1204 # 10009c <output_front_cursor>
 558:	00e7a023          	sw	a4,0(a5)
 55c:	00000013          	nop
 560:	00c12403          	lw	s0,12(sp)
 564:	01010113          	addi	sp,sp,16
 568:	00008067          	ret

0000056c <_setc>:
 56c:	fe010113          	addi	sp,sp,-32
 570:	00812e23          	sw	s0,28(sp)
 574:	02010413          	addi	s0,sp,32
 578:	00050793          	mv	a5,a0
 57c:	00058713          	mv	a4,a1
 580:	fec42423          	sw	a2,-24(s0)
 584:	fef407a3          	sb	a5,-17(s0)
 588:	00070793          	mv	a5,a4
 58c:	fef40723          	sb	a5,-18(s0)
 590:	00300737          	lui	a4,0x300
 594:	fe842783          	lw	a5,-24(s0)
 598:	00f707b3          	add	a5,a4,a5
 59c:	fef44703          	lbu	a4,-17(s0)
 5a0:	00e78023          	sb	a4,0(a5)
 5a4:	00400737          	lui	a4,0x400
 5a8:	fe842783          	lw	a5,-24(s0)
 5ac:	00f707b3          	add	a5,a4,a5
 5b0:	fee44703          	lbu	a4,-18(s0)
 5b4:	00e78023          	sb	a4,0(a5)
 5b8:	00000013          	nop
 5bc:	01c12403          	lw	s0,28(sp)
 5c0:	02010113          	addi	sp,sp,32
 5c4:	00008067          	ret

000005c8 <_erasec>:
 5c8:	fe010113          	addi	sp,sp,-32
 5cc:	00812e23          	sw	s0,28(sp)
 5d0:	02010413          	addi	s0,sp,32
 5d4:	fea42623          	sw	a0,-20(s0)
 5d8:	00300737          	lui	a4,0x300
 5dc:	fec42783          	lw	a5,-20(s0)
 5e0:	00f707b3          	add	a5,a4,a5
 5e4:	00078023          	sb	zero,0(a5)
 5e8:	00400737          	lui	a4,0x400
 5ec:	fec42783          	lw	a5,-20(s0)
 5f0:	00f707b3          	add	a5,a4,a5
 5f4:	00078023          	sb	zero,0(a5)
 5f8:	00000013          	nop
 5fc:	01c12403          	lw	s0,28(sp)
 600:	02010113          	addi	sp,sp,32
 604:	00008067          	ret

00000608 <error>:
 608:	fe010113          	addi	sp,sp,-32
 60c:	00112e23          	sw	ra,28(sp)
 610:	00812c23          	sw	s0,24(sp)
 614:	02010413          	addi	s0,sp,32
 618:	fea42623          	sw	a0,-20(s0)
 61c:	00000593          	li	a1,0
 620:	00100517          	auipc	a0,0x100
 624:	9e850513          	addi	a0,a0,-1560 # 100008 <_etext+0xff060>
 628:	b75ff0ef          	jal	ra,19c <print>
 62c:	00400593          	li	a1,4
 630:	fec42503          	lw	a0,-20(s0)
 634:	b69ff0ef          	jal	ra,19c <print>
 638:	00000013          	nop
 63c:	01c12083          	lw	ra,28(sp)
 640:	01812403          	lw	s0,24(sp)
 644:	02010113          	addi	sp,sp,32
 648:	00008067          	ret

0000064c <_next_key_arrived>:
 64c:	ff010113          	addi	sp,sp,-16
 650:	00812623          	sw	s0,12(sp)
 654:	01010413          	addi	s0,sp,16
 658:	00100797          	auipc	a5,0x100
 65c:	a5078793          	addi	a5,a5,-1456 # 1000a8 <kb_info>
 660:	0007c783          	lbu	a5,0(a5)
 664:	0ff7f793          	zext.b	a5,a5
 668:	04078c63          	beqz	a5,6c0 <_next_key_arrived+0x74>
 66c:	00100797          	auipc	a5,0x100
 670:	a3c78793          	addi	a5,a5,-1476 # 1000a8 <kb_info>
 674:	0007c783          	lbu	a5,0(a5)
 678:	0ff7f713          	zext.b	a4,a5
 67c:	00100797          	auipc	a5,0x100
 680:	a2478793          	addi	a5,a5,-1500 # 1000a0 <input_controller>
 684:	0007c783          	lbu	a5,0(a5)
 688:	02f71863          	bne	a4,a5,6b8 <_next_key_arrived+0x6c>
 68c:	00100797          	auipc	a5,0x100
 690:	a0878793          	addi	a5,a5,-1528 # 100094 <sys_time>
 694:	0007a703          	lw	a4,0(a5)
 698:	00100797          	auipc	a5,0x100
 69c:	a0878793          	addi	a5,a5,-1528 # 1000a0 <input_controller>
 6a0:	0047a783          	lw	a5,4(a5)
 6a4:	40f707b3          	sub	a5,a4,a5
 6a8:	0fb7b793          	sltiu	a5,a5,251
 6ac:	0017c793          	xori	a5,a5,1
 6b0:	0ff7f793          	zext.b	a5,a5
 6b4:	0100006f          	j	6c4 <_next_key_arrived+0x78>
 6b8:	00100793          	li	a5,1
 6bc:	0080006f          	j	6c4 <_next_key_arrived+0x78>
 6c0:	00000793          	li	a5,0
 6c4:	00078513          	mv	a0,a5
 6c8:	00c12403          	lw	s0,12(sp)
 6cc:	01010113          	addi	sp,sp,16
 6d0:	00008067          	ret

000006d4 <init_CSR>:
 6d4:	fe010113          	addi	sp,sp,-32
 6d8:	00812e23          	sw	s0,28(sp)
 6dc:	02010413          	addi	s0,sp,32
 6e0:	00001797          	auipc	a5,0x1
 6e4:	86c78793          	addi	a5,a5,-1940 # f4c <int_handler_entrance>
 6e8:	fef42623          	sw	a5,-20(s0)
 6ec:	fec42783          	lw	a5,-20(s0)
 6f0:	fe842703          	lw	a4,-24(s0)
 6f4:	00078713          	mv	a4,a5
 6f8:	30571073          	csrw	mtvec,a4
 6fc:	007007b7          	lui	a5,0x700
 700:	34079073          	csrw	mscratch,a5
 704:	00800793          	li	a5,8
 708:	30079073          	csrw	mstatus,a5
 70c:	00000013          	nop
 710:	01c12403          	lw	s0,28(sp)
 714:	02010113          	addi	sp,sp,32
 718:	00008067          	ret

0000071c <irq_handler>:
 71c:	fe010113          	addi	sp,sp,-32
 720:	00812e23          	sw	s0,28(sp)
 724:	02010413          	addi	s0,sp,32
 728:	fea42623          	sw	a0,-20(s0)
 72c:	fec42703          	lw	a4,-20(s0)
 730:	800007b7          	lui	a5,0x80000
 734:	00778793          	addi	a5,a5,7 # 80000007 <_end+0x7feff807>
 738:	04f71263          	bne	a4,a5,77c <irq_handler+0x60>
 73c:	00100797          	auipc	a5,0x100
 740:	95878793          	addi	a5,a5,-1704 # 100094 <sys_time>
 744:	0007a783          	lw	a5,0(a5)
 748:	00178713          	addi	a4,a5,1
 74c:	00100797          	auipc	a5,0x100
 750:	94878793          	addi	a5,a5,-1720 # 100094 <sys_time>
 754:	00e7a023          	sw	a4,0(a5)
 758:	00100797          	auipc	a5,0x100
 75c:	93078793          	addi	a5,a5,-1744 # 100088 <p_kb_info>
 760:	0007a703          	lw	a4,0(a5)
 764:	00100797          	auipc	a5,0x100
 768:	94478793          	addi	a5,a5,-1724 # 1000a8 <kb_info>
 76c:	00074683          	lbu	a3,0(a4) # 400000 <_end+0x2ff800>
 770:	00d78023          	sb	a3,0(a5)
 774:	00174703          	lbu	a4,1(a4)
 778:	00e780a3          	sb	a4,1(a5)
 77c:	00000013          	nop
 780:	01c12403          	lw	s0,28(sp)
 784:	02010113          	addi	sp,sp,32
 788:	00008067          	ret

0000078c <init_io_mm>:
 78c:	ff010113          	addi	sp,sp,-16
 790:	00812623          	sw	s0,12(sp)
 794:	01010413          	addi	s0,sp,16
 798:	00100797          	auipc	a5,0x100
 79c:	91478793          	addi	a5,a5,-1772 # 1000ac <vga_info>
 7a0:	00100713          	li	a4,1
 7a4:	00e79223          	sh	a4,4(a5)
 7a8:	00100797          	auipc	a5,0x100
 7ac:	90478793          	addi	a5,a5,-1788 # 1000ac <vga_info>
 7b0:	00100713          	li	a4,1
 7b4:	00e79323          	sh	a4,6(a5)
 7b8:	00100797          	auipc	a5,0x100
 7bc:	8f478793          	addi	a5,a5,-1804 # 1000ac <vga_info>
 7c0:	0007a023          	sw	zero,0(a5)
 7c4:	002007b7          	lui	a5,0x200
 7c8:	00100717          	auipc	a4,0x100
 7cc:	8e470713          	addi	a4,a4,-1820 # 1000ac <vga_info>
 7d0:	00072683          	lw	a3,0(a4)
 7d4:	00d7a023          	sw	a3,0(a5) # 200000 <_end+0xff800>
 7d8:	00472703          	lw	a4,4(a4)
 7dc:	00e7a223          	sw	a4,4(a5)
 7e0:	00000013          	nop
 7e4:	00c12403          	lw	s0,12(sp)
 7e8:	01010113          	addi	sp,sp,16
 7ec:	00008067          	ret

000007f0 <ui_mainloop>:
 7f0:	fc010113          	addi	sp,sp,-64
 7f4:	02112e23          	sw	ra,60(sp)
 7f8:	02812c23          	sw	s0,56(sp)
 7fc:	04010413          	addi	s0,sp,64
 800:	00400593          	li	a1,4
 804:	00100517          	auipc	a0,0x100
 808:	80c50513          	addi	a0,a0,-2036 # 100010 <_etext+0xff068>
 80c:	991ff0ef          	jal	ra,19c <print>
 810:	d29ff0ef          	jal	ra,538 <lock_output_front>
 814:	fcc40793          	addi	a5,s0,-52
 818:	00078513          	mv	a0,a5
 81c:	a79ff0ef          	jal	ra,294 <getline>
 820:	fcc40793          	addi	a5,s0,-52
 824:	000ff597          	auipc	a1,0xff
 828:	7f058593          	addi	a1,a1,2032 # 100014 <_etext+0xff06c>
 82c:	00078513          	mv	a0,a5
 830:	2bc000ef          	jal	ra,aec <strtok>
 834:	00050793          	mv	a5,a0
 838:	fef42623          	sw	a5,-20(s0)
 83c:	000ff597          	auipc	a1,0xff
 840:	7dc58593          	addi	a1,a1,2012 # 100018 <_etext+0xff070>
 844:	fec42503          	lw	a0,-20(s0)
 848:	208000ef          	jal	ra,a50 <strcmp>
 84c:	00050793          	mv	a5,a0
 850:	00079663          	bnez	a5,85c <ui_mainloop+0x6c>
 854:	058000ef          	jal	ra,8ac <hello>
 858:	fa9ff06f          	j	800 <ui_mainloop+0x10>
 85c:	000ff597          	auipc	a1,0xff
 860:	7c458593          	addi	a1,a1,1988 # 100020 <_etext+0xff078>
 864:	fec42503          	lw	a0,-20(s0)
 868:	1e8000ef          	jal	ra,a50 <strcmp>
 86c:	00050793          	mv	a5,a0
 870:	00079663          	bnez	a5,87c <ui_mainloop+0x8c>
 874:	06c000ef          	jal	ra,8e0 <time>
 878:	f89ff06f          	j	800 <ui_mainloop+0x10>
 87c:	000ff597          	auipc	a1,0xff
 880:	7ac58593          	addi	a1,a1,1964 # 100028 <_etext+0xff080>
 884:	fec42503          	lw	a0,-20(s0)
 888:	1c8000ef          	jal	ra,a50 <strcmp>
 88c:	00050793          	mv	a5,a0
 890:	00079663          	bnez	a5,89c <ui_mainloop+0xac>
 894:	0b0000ef          	jal	ra,944 <fib>
 898:	f69ff06f          	j	800 <ui_mainloop+0x10>
 89c:	000ff517          	auipc	a0,0xff
 8a0:	79050513          	addi	a0,a0,1936 # 10002c <_etext+0xff084>
 8a4:	d65ff0ef          	jal	ra,608 <error>
 8a8:	f59ff06f          	j	800 <ui_mainloop+0x10>

000008ac <hello>:
 8ac:	ff010113          	addi	sp,sp,-16
 8b0:	00112623          	sw	ra,12(sp)
 8b4:	00812423          	sw	s0,8(sp)
 8b8:	01010413          	addi	s0,sp,16
 8bc:	00400593          	li	a1,4
 8c0:	000ff517          	auipc	a0,0xff
 8c4:	78050513          	addi	a0,a0,1920 # 100040 <_etext+0xff098>
 8c8:	8d5ff0ef          	jal	ra,19c <print>
 8cc:	00000013          	nop
 8d0:	00c12083          	lw	ra,12(sp)
 8d4:	00812403          	lw	s0,8(sp)
 8d8:	01010113          	addi	sp,sp,16
 8dc:	00008067          	ret

000008e0 <time>:
 8e0:	fe010113          	addi	sp,sp,-32
 8e4:	00112e23          	sw	ra,28(sp)
 8e8:	00812c23          	sw	s0,24(sp)
 8ec:	02010413          	addi	s0,sp,32
 8f0:	000ff797          	auipc	a5,0xff
 8f4:	7a478793          	addi	a5,a5,1956 # 100094 <sys_time>
 8f8:	0007a783          	lw	a5,0(a5)
 8fc:	00078713          	mv	a4,a5
 900:	fe440793          	addi	a5,s0,-28
 904:	00078593          	mv	a1,a5
 908:	00070513          	mv	a0,a4
 90c:	388000ef          	jal	ra,c94 <itoa>
 910:	fe440793          	addi	a5,s0,-28
 914:	00400593          	li	a1,4
 918:	00078513          	mv	a0,a5
 91c:	881ff0ef          	jal	ra,19c <print>
 920:	00400593          	li	a1,4
 924:	000ff517          	auipc	a0,0xff
 928:	72c50513          	addi	a0,a0,1836 # 100050 <_etext+0xff0a8>
 92c:	871ff0ef          	jal	ra,19c <print>
 930:	00000013          	nop
 934:	01c12083          	lw	ra,28(sp)
 938:	01812403          	lw	s0,24(sp)
 93c:	02010113          	addi	sp,sp,32
 940:	00008067          	ret

00000944 <fib>:
 944:	fd010113          	addi	sp,sp,-48
 948:	02112623          	sw	ra,44(sp)
 94c:	02812423          	sw	s0,40(sp)
 950:	03010413          	addi	s0,sp,48
 954:	000ff597          	auipc	a1,0xff
 958:	6c058593          	addi	a1,a1,1728 # 100014 <_etext+0xff06c>
 95c:	00000513          	li	a0,0
 960:	18c000ef          	jal	ra,aec <strtok>
 964:	00050793          	mv	a5,a0
 968:	fef42223          	sw	a5,-28(s0)
 96c:	fe442503          	lw	a0,-28(s0)
 970:	4d8000ef          	jal	ra,e48 <atoi>
 974:	fea42623          	sw	a0,-20(s0)
 978:	fec42783          	lw	a5,-20(s0)
 97c:	0007da63          	bgez	a5,990 <fib+0x4c>
 980:	000ff517          	auipc	a0,0xff
 984:	6d450513          	addi	a0,a0,1748 # 100054 <_etext+0xff0ac>
 988:	c81ff0ef          	jal	ra,608 <error>
 98c:	0640006f          	j	9f0 <fib+0xac>
 990:	00100793          	li	a5,1
 994:	fef42423          	sw	a5,-24(s0)
 998:	0200006f          	j	9b8 <fib+0x74>
 99c:	fe842703          	lw	a4,-24(s0)
 9a0:	fec42783          	lw	a5,-20(s0)
 9a4:	02f707b3          	mul	a5,a4,a5
 9a8:	fef42423          	sw	a5,-24(s0)
 9ac:	fec42783          	lw	a5,-20(s0)
 9b0:	fff78793          	addi	a5,a5,-1
 9b4:	fef42623          	sw	a5,-20(s0)
 9b8:	fec42783          	lw	a5,-20(s0)
 9bc:	fe0790e3          	bnez	a5,99c <fib+0x58>
 9c0:	00400593          	li	a1,4
 9c4:	000ff517          	auipc	a0,0xff
 9c8:	6ac50513          	addi	a0,a0,1708 # 100070 <_etext+0xff0c8>
 9cc:	fd0ff0ef          	jal	ra,19c <print>
 9d0:	fd840793          	addi	a5,s0,-40
 9d4:	00078593          	mv	a1,a5
 9d8:	fe842503          	lw	a0,-24(s0)
 9dc:	2b8000ef          	jal	ra,c94 <itoa>
 9e0:	fd840793          	addi	a5,s0,-40
 9e4:	00400593          	li	a1,4
 9e8:	00078513          	mv	a0,a5
 9ec:	fb0ff0ef          	jal	ra,19c <print>
 9f0:	00000013          	nop
 9f4:	02c12083          	lw	ra,44(sp)
 9f8:	02812403          	lw	s0,40(sp)
 9fc:	03010113          	addi	sp,sp,48
 a00:	00008067          	ret

00000a04 <isdigit>:
 a04:	fe010113          	addi	sp,sp,-32
 a08:	00812e23          	sw	s0,28(sp)
 a0c:	02010413          	addi	s0,sp,32
 a10:	00050793          	mv	a5,a0
 a14:	fef407a3          	sb	a5,-17(s0)
 a18:	fef44703          	lbu	a4,-17(s0)
 a1c:	02f00793          	li	a5,47
 a20:	00e7fc63          	bgeu	a5,a4,a38 <isdigit+0x34>
 a24:	fef44703          	lbu	a4,-17(s0)
 a28:	03900793          	li	a5,57
 a2c:	00e7e663          	bltu	a5,a4,a38 <isdigit+0x34>
 a30:	00100793          	li	a5,1
 a34:	0080006f          	j	a3c <isdigit+0x38>
 a38:	00000793          	li	a5,0
 a3c:	0ff7f793          	zext.b	a5,a5
 a40:	00078513          	mv	a0,a5
 a44:	01c12403          	lw	s0,28(sp)
 a48:	02010113          	addi	sp,sp,32
 a4c:	00008067          	ret

00000a50 <strcmp>:
 a50:	fd010113          	addi	sp,sp,-48
 a54:	02812623          	sw	s0,44(sp)
 a58:	03010413          	addi	s0,sp,48
 a5c:	fca42e23          	sw	a0,-36(s0)
 a60:	fcb42c23          	sw	a1,-40(s0)
 a64:	fe042623          	sw	zero,-20(s0)
 a68:	01c0006f          	j	a84 <strcmp+0x34>
 a6c:	fdc42783          	lw	a5,-36(s0)
 a70:	00178793          	addi	a5,a5,1
 a74:	fcf42e23          	sw	a5,-36(s0)
 a78:	fd842783          	lw	a5,-40(s0)
 a7c:	00178793          	addi	a5,a5,1
 a80:	fcf42c23          	sw	a5,-40(s0)
 a84:	fdc42783          	lw	a5,-36(s0)
 a88:	0007c783          	lbu	a5,0(a5)
 a8c:	00078713          	mv	a4,a5
 a90:	fd842783          	lw	a5,-40(s0)
 a94:	0007c783          	lbu	a5,0(a5)
 a98:	40f707b3          	sub	a5,a4,a5
 a9c:	fef42623          	sw	a5,-20(s0)
 aa0:	fec42783          	lw	a5,-20(s0)
 aa4:	00079863          	bnez	a5,ab4 <strcmp+0x64>
 aa8:	fd842783          	lw	a5,-40(s0)
 aac:	0007c783          	lbu	a5,0(a5)
 ab0:	fa079ee3          	bnez	a5,a6c <strcmp+0x1c>
 ab4:	fec42783          	lw	a5,-20(s0)
 ab8:	0007d863          	bgez	a5,ac8 <strcmp+0x78>
 abc:	fff00793          	li	a5,-1
 ac0:	fef42623          	sw	a5,-20(s0)
 ac4:	0140006f          	j	ad8 <strcmp+0x88>
 ac8:	fec42783          	lw	a5,-20(s0)
 acc:	00f05663          	blez	a5,ad8 <strcmp+0x88>
 ad0:	00100793          	li	a5,1
 ad4:	fef42623          	sw	a5,-20(s0)
 ad8:	fec42783          	lw	a5,-20(s0)
 adc:	00078513          	mv	a0,a5
 ae0:	02c12403          	lw	s0,44(sp)
 ae4:	03010113          	addi	sp,sp,48
 ae8:	00008067          	ret

00000aec <strtok>:
 aec:	fc010113          	addi	sp,sp,-64
 af0:	02812e23          	sw	s0,60(sp)
 af4:	04010413          	addi	s0,sp,64
 af8:	fca42623          	sw	a0,-52(s0)
 afc:	fcb42423          	sw	a1,-56(s0)
 b00:	fc842783          	lw	a5,-56(s0)
 b04:	00079663          	bnez	a5,b10 <strtok+0x24>
 b08:	00000793          	li	a5,0
 b0c:	1780006f          	j	c84 <strtok+0x198>
 b10:	fcc42783          	lw	a5,-52(s0)
 b14:	00079e63          	bnez	a5,b30 <strtok+0x44>
 b18:	000ff797          	auipc	a5,0xff
 b1c:	57878793          	addi	a5,a5,1400 # 100090 <s_mem.0>
 b20:	0007a783          	lw	a5,0(a5)
 b24:	00079663          	bnez	a5,b30 <strtok+0x44>
 b28:	00000793          	li	a5,0
 b2c:	1580006f          	j	c84 <strtok+0x198>
 b30:	fcc42783          	lw	a5,-52(s0)
 b34:	00078863          	beqz	a5,b44 <strtok+0x58>
 b38:	fcc42783          	lw	a5,-52(s0)
 b3c:	fef42623          	sw	a5,-20(s0)
 b40:	0140006f          	j	b54 <strtok+0x68>
 b44:	000ff797          	auipc	a5,0xff
 b48:	54c78793          	addi	a5,a5,1356 # 100090 <s_mem.0>
 b4c:	0007a783          	lw	a5,0(a5)
 b50:	fef42623          	sw	a5,-20(s0)
 b54:	00100793          	li	a5,1
 b58:	fef42223          	sw	a5,-28(s0)
 b5c:	05c0006f          	j	bb8 <strtok+0xcc>
 b60:	fc842783          	lw	a5,-56(s0)
 b64:	fef42423          	sw	a5,-24(s0)
 b68:	0100006f          	j	b78 <strtok+0x8c>
 b6c:	fe842783          	lw	a5,-24(s0)
 b70:	00178793          	addi	a5,a5,1
 b74:	fef42423          	sw	a5,-24(s0)
 b78:	fe842783          	lw	a5,-24(s0)
 b7c:	0007c783          	lbu	a5,0(a5)
 b80:	00078c63          	beqz	a5,b98 <strtok+0xac>
 b84:	fec42783          	lw	a5,-20(s0)
 b88:	0007c703          	lbu	a4,0(a5)
 b8c:	fe842783          	lw	a5,-24(s0)
 b90:	0007c783          	lbu	a5,0(a5)
 b94:	fcf71ce3          	bne	a4,a5,b6c <strtok+0x80>
 b98:	fe842783          	lw	a5,-24(s0)
 b9c:	0007c783          	lbu	a5,0(a5)
 ba0:	00078a63          	beqz	a5,bb4 <strtok+0xc8>
 ba4:	fec42783          	lw	a5,-20(s0)
 ba8:	00178793          	addi	a5,a5,1
 bac:	fef42623          	sw	a5,-20(s0)
 bb0:	0080006f          	j	bb8 <strtok+0xcc>
 bb4:	fe042223          	sw	zero,-28(s0)
 bb8:	fe442783          	lw	a5,-28(s0)
 bbc:	fa0792e3          	bnez	a5,b60 <strtok+0x74>
 bc0:	000ff797          	auipc	a5,0xff
 bc4:	4d078793          	addi	a5,a5,1232 # 100090 <s_mem.0>
 bc8:	fec42703          	lw	a4,-20(s0)
 bcc:	00e7a023          	sw	a4,0(a5)
 bd0:	0880006f          	j	c58 <strtok+0x16c>
 bd4:	fc842783          	lw	a5,-56(s0)
 bd8:	fef42423          	sw	a5,-24(s0)
 bdc:	0100006f          	j	bec <strtok+0x100>
 be0:	fe842783          	lw	a5,-24(s0)
 be4:	00178793          	addi	a5,a5,1
 be8:	fef42423          	sw	a5,-24(s0)
 bec:	fe842783          	lw	a5,-24(s0)
 bf0:	0007c783          	lbu	a5,0(a5)
 bf4:	00078c63          	beqz	a5,c0c <strtok+0x120>
 bf8:	fec42783          	lw	a5,-20(s0)
 bfc:	0007c703          	lbu	a4,0(a5)
 c00:	fe842783          	lw	a5,-24(s0)
 c04:	0007c783          	lbu	a5,0(a5)
 c08:	fcf71ce3          	bne	a4,a5,be0 <strtok+0xf4>
 c0c:	fe842783          	lw	a5,-24(s0)
 c10:	0007c783          	lbu	a5,0(a5)
 c14:	02078c63          	beqz	a5,c4c <strtok+0x160>
 c18:	fec42783          	lw	a5,-20(s0)
 c1c:	00078023          	sb	zero,0(a5)
 c20:	000ff797          	auipc	a5,0xff
 c24:	47078793          	addi	a5,a5,1136 # 100090 <s_mem.0>
 c28:	0007a783          	lw	a5,0(a5)
 c2c:	fcf42e23          	sw	a5,-36(s0)
 c30:	fec42783          	lw	a5,-20(s0)
 c34:	00178713          	addi	a4,a5,1
 c38:	000ff797          	auipc	a5,0xff
 c3c:	45878793          	addi	a5,a5,1112 # 100090 <s_mem.0>
 c40:	00e7a023          	sw	a4,0(a5)
 c44:	fdc42783          	lw	a5,-36(s0)
 c48:	03c0006f          	j	c84 <strtok+0x198>
 c4c:	fec42783          	lw	a5,-20(s0)
 c50:	00178793          	addi	a5,a5,1
 c54:	fef42623          	sw	a5,-20(s0)
 c58:	fec42783          	lw	a5,-20(s0)
 c5c:	0007c783          	lbu	a5,0(a5)
 c60:	f6079ae3          	bnez	a5,bd4 <strtok+0xe8>
 c64:	000ff797          	auipc	a5,0xff
 c68:	42c78793          	addi	a5,a5,1068 # 100090 <s_mem.0>
 c6c:	0007a783          	lw	a5,0(a5)
 c70:	fef42023          	sw	a5,-32(s0)
 c74:	000ff797          	auipc	a5,0xff
 c78:	41c78793          	addi	a5,a5,1052 # 100090 <s_mem.0>
 c7c:	0007a023          	sw	zero,0(a5)
 c80:	fe042783          	lw	a5,-32(s0)
 c84:	00078513          	mv	a0,a5
 c88:	03c12403          	lw	s0,60(sp)
 c8c:	04010113          	addi	sp,sp,64
 c90:	00008067          	ret

00000c94 <itoa>:
 c94:	fd010113          	addi	sp,sp,-48
 c98:	02812623          	sw	s0,44(sp)
 c9c:	03010413          	addi	s0,sp,48
 ca0:	fca42e23          	sw	a0,-36(s0)
 ca4:	fcb42c23          	sw	a1,-40(s0)
 ca8:	fdc42783          	lw	a5,-36(s0)
 cac:	fef42223          	sw	a5,-28(s0)
 cb0:	fe442783          	lw	a5,-28(s0)
 cb4:	0007d863          	bgez	a5,cc4 <itoa+0x30>
 cb8:	fdc42783          	lw	a5,-36(s0)
 cbc:	40f007b3          	neg	a5,a5
 cc0:	fcf42e23          	sw	a5,-36(s0)
 cc4:	fe042623          	sw	zero,-20(s0)
 cc8:	fdc42703          	lw	a4,-36(s0)
 ccc:	00a00793          	li	a5,10
 cd0:	02f767b3          	rem	a5,a4,a5
 cd4:	0ff7f713          	zext.b	a4,a5
 cd8:	fec42783          	lw	a5,-20(s0)
 cdc:	00178693          	addi	a3,a5,1
 ce0:	fed42623          	sw	a3,-20(s0)
 ce4:	00078693          	mv	a3,a5
 ce8:	fd842783          	lw	a5,-40(s0)
 cec:	00d787b3          	add	a5,a5,a3
 cf0:	03070713          	addi	a4,a4,48
 cf4:	0ff77713          	zext.b	a4,a4
 cf8:	00e78023          	sb	a4,0(a5)
 cfc:	fdc42703          	lw	a4,-36(s0)
 d00:	00a00793          	li	a5,10
 d04:	02f747b3          	div	a5,a4,a5
 d08:	fcf42e23          	sw	a5,-36(s0)
 d0c:	fdc42783          	lw	a5,-36(s0)
 d10:	faf04ce3          	bgtz	a5,cc8 <itoa+0x34>
 d14:	fe442783          	lw	a5,-28(s0)
 d18:	0207d263          	bgez	a5,d3c <itoa+0xa8>
 d1c:	fec42783          	lw	a5,-20(s0)
 d20:	00178713          	addi	a4,a5,1
 d24:	fee42623          	sw	a4,-20(s0)
 d28:	00078713          	mv	a4,a5
 d2c:	fd842783          	lw	a5,-40(s0)
 d30:	00e787b3          	add	a5,a5,a4
 d34:	02d00713          	li	a4,45
 d38:	00e78023          	sb	a4,0(a5)
 d3c:	fec42783          	lw	a5,-20(s0)
 d40:	fd842703          	lw	a4,-40(s0)
 d44:	00f707b3          	add	a5,a4,a5
 d48:	00078023          	sb	zero,0(a5)
 d4c:	fec42783          	lw	a5,-20(s0)
 d50:	fef42023          	sw	a5,-32(s0)
 d54:	fe042783          	lw	a5,-32(s0)
 d58:	fff78793          	addi	a5,a5,-1
 d5c:	fef42423          	sw	a5,-24(s0)
 d60:	fe042623          	sw	zero,-20(s0)
 d64:	0c40006f          	j	e28 <itoa+0x194>
 d68:	fe842783          	lw	a5,-24(s0)
 d6c:	fd842703          	lw	a4,-40(s0)
 d70:	00f707b3          	add	a5,a4,a5
 d74:	0007c683          	lbu	a3,0(a5)
 d78:	fec42783          	lw	a5,-20(s0)
 d7c:	fd842703          	lw	a4,-40(s0)
 d80:	00f707b3          	add	a5,a4,a5
 d84:	0007c703          	lbu	a4,0(a5)
 d88:	fe842783          	lw	a5,-24(s0)
 d8c:	fd842603          	lw	a2,-40(s0)
 d90:	00f607b3          	add	a5,a2,a5
 d94:	00e6c733          	xor	a4,a3,a4
 d98:	0ff77713          	zext.b	a4,a4
 d9c:	00e78023          	sb	a4,0(a5)
 da0:	fec42783          	lw	a5,-20(s0)
 da4:	fd842703          	lw	a4,-40(s0)
 da8:	00f707b3          	add	a5,a4,a5
 dac:	0007c683          	lbu	a3,0(a5)
 db0:	fe842783          	lw	a5,-24(s0)
 db4:	fd842703          	lw	a4,-40(s0)
 db8:	00f707b3          	add	a5,a4,a5
 dbc:	0007c703          	lbu	a4,0(a5)
 dc0:	fec42783          	lw	a5,-20(s0)
 dc4:	fd842603          	lw	a2,-40(s0)
 dc8:	00f607b3          	add	a5,a2,a5
 dcc:	00e6c733          	xor	a4,a3,a4
 dd0:	0ff77713          	zext.b	a4,a4
 dd4:	00e78023          	sb	a4,0(a5)
 dd8:	fe842783          	lw	a5,-24(s0)
 ddc:	fd842703          	lw	a4,-40(s0)
 de0:	00f707b3          	add	a5,a4,a5
 de4:	0007c683          	lbu	a3,0(a5)
 de8:	fec42783          	lw	a5,-20(s0)
 dec:	fd842703          	lw	a4,-40(s0)
 df0:	00f707b3          	add	a5,a4,a5
 df4:	0007c703          	lbu	a4,0(a5)
 df8:	fe842783          	lw	a5,-24(s0)
 dfc:	fd842603          	lw	a2,-40(s0)
 e00:	00f607b3          	add	a5,a2,a5
 e04:	00e6c733          	xor	a4,a3,a4
 e08:	0ff77713          	zext.b	a4,a4
 e0c:	00e78023          	sb	a4,0(a5)
 e10:	fe842783          	lw	a5,-24(s0)
 e14:	fff78793          	addi	a5,a5,-1
 e18:	fef42423          	sw	a5,-24(s0)
 e1c:	fec42783          	lw	a5,-20(s0)
 e20:	00178793          	addi	a5,a5,1
 e24:	fef42623          	sw	a5,-20(s0)
 e28:	fe842703          	lw	a4,-24(s0)
 e2c:	fec42783          	lw	a5,-20(s0)
 e30:	f2e7cce3          	blt	a5,a4,d68 <itoa+0xd4>
 e34:	00000013          	nop
 e38:	00000013          	nop
 e3c:	02c12403          	lw	s0,44(sp)
 e40:	03010113          	addi	sp,sp,48
 e44:	00008067          	ret

00000e48 <atoi>:
 e48:	fd010113          	addi	sp,sp,-48
 e4c:	02112623          	sw	ra,44(sp)
 e50:	02812423          	sw	s0,40(sp)
 e54:	03010413          	addi	s0,sp,48
 e58:	fca42e23          	sw	a0,-36(s0)
 e5c:	fe042623          	sw	zero,-20(s0)
 e60:	fdc42703          	lw	a4,-36(s0)
 e64:	fec42783          	lw	a5,-20(s0)
 e68:	00f707b3          	add	a5,a4,a5
 e6c:	0007c703          	lbu	a4,0(a5)
 e70:	02d00793          	li	a5,45
 e74:	00f71663          	bne	a4,a5,e80 <atoi+0x38>
 e78:	fff00793          	li	a5,-1
 e7c:	0080006f          	j	e84 <atoi+0x3c>
 e80:	00100793          	li	a5,1
 e84:	fef42223          	sw	a5,-28(s0)
 e88:	fdc42703          	lw	a4,-36(s0)
 e8c:	fec42783          	lw	a5,-20(s0)
 e90:	00f707b3          	add	a5,a4,a5
 e94:	0007c703          	lbu	a4,0(a5)
 e98:	02b00793          	li	a5,43
 e9c:	00f70e63          	beq	a4,a5,eb8 <atoi+0x70>
 ea0:	fdc42703          	lw	a4,-36(s0)
 ea4:	fec42783          	lw	a5,-20(s0)
 ea8:	00f707b3          	add	a5,a4,a5
 eac:	0007c703          	lbu	a4,0(a5)
 eb0:	02d00793          	li	a5,45
 eb4:	00f71863          	bne	a4,a5,ec4 <atoi+0x7c>
 eb8:	fec42783          	lw	a5,-20(s0)
 ebc:	00178793          	addi	a5,a5,1
 ec0:	fef42623          	sw	a5,-20(s0)
 ec4:	fe042423          	sw	zero,-24(s0)
 ec8:	0440006f          	j	f0c <atoi+0xc4>
 ecc:	fe842703          	lw	a4,-24(s0)
 ed0:	00070793          	mv	a5,a4
 ed4:	00279793          	slli	a5,a5,0x2
 ed8:	00e787b3          	add	a5,a5,a4
 edc:	00179793          	slli	a5,a5,0x1
 ee0:	00078693          	mv	a3,a5
 ee4:	fdc42703          	lw	a4,-36(s0)
 ee8:	fec42783          	lw	a5,-20(s0)
 eec:	00f707b3          	add	a5,a4,a5
 ef0:	0007c783          	lbu	a5,0(a5)
 ef4:	00f687b3          	add	a5,a3,a5
 ef8:	fd078793          	addi	a5,a5,-48
 efc:	fef42423          	sw	a5,-24(s0)
 f00:	fec42783          	lw	a5,-20(s0)
 f04:	00178793          	addi	a5,a5,1
 f08:	fef42623          	sw	a5,-20(s0)
 f0c:	fdc42703          	lw	a4,-36(s0)
 f10:	fec42783          	lw	a5,-20(s0)
 f14:	00f707b3          	add	a5,a4,a5
 f18:	0007c783          	lbu	a5,0(a5)
 f1c:	00078513          	mv	a0,a5
 f20:	ae5ff0ef          	jal	ra,a04 <isdigit>
 f24:	00050793          	mv	a5,a0
 f28:	fa0792e3          	bnez	a5,ecc <atoi+0x84>
 f2c:	fe442703          	lw	a4,-28(s0)
 f30:	fe842783          	lw	a5,-24(s0)
 f34:	02f707b3          	mul	a5,a4,a5
 f38:	00078513          	mv	a0,a5
 f3c:	02c12083          	lw	ra,44(sp)
 f40:	02812403          	lw	s0,40(sp)
 f44:	03010113          	addi	sp,sp,48
 f48:	00008067          	ret

00000f4c <int_handler_entrance>:
 f4c:	340f9ff3          	csrrw	t6,mscratch,t6
 f50:	00afa023          	sw	a0,0(t6)
 f54:	00bfa223          	sw	a1,4(t6)
 f58:	00cfa423          	sw	a2,8(t6)
 f5c:	00dfa623          	sw	a3,12(t6)
 f60:	00efa823          	sw	a4,16(t6)
 f64:	00ffaa23          	sw	a5,20(t6)
 f68:	010fac23          	sw	a6,24(t6)
 f6c:	011fae23          	sw	a7,28(t6)
 f70:	021fa023          	sw	ra,32(t6)
 f74:	34202573          	csrr	a0,mcause
 f78:	fa4ff0ef          	jal	ra,71c <irq_handler>
 f7c:	000fa503          	lw	a0,0(t6)
 f80:	004fa583          	lw	a1,4(t6)
 f84:	008fa603          	lw	a2,8(t6)
 f88:	00cfa683          	lw	a3,12(t6)
 f8c:	010fa703          	lw	a4,16(t6)
 f90:	014fa783          	lw	a5,20(t6)
 f94:	018fa803          	lw	a6,24(t6)
 f98:	01cfa883          	lw	a7,28(t6)
 f9c:	020fa083          	lw	ra,32(t6)
 fa0:	340f9ff3          	csrrw	t6,mscratch,t6
 fa4:	30200073          	mret
