
main.elf:     file format elf32-littleriscv


Disassembly of section .text:

00000000 <entry>:
       0:	ff010113          	addi	sp,sp,-16
       4:	00112623          	sw	ra,12(sp)
       8:	00812423          	sw	s0,8(sp)
       c:	01010413          	addi	s0,sp,16
      10:	00120137          	lui	sp,0x120
      14:	ffc10113          	addi	sp,sp,-4 # 11fffc <_end+0x1f7fc>
      18:	159000ef          	jal	ra,970 <init_io_mm>
      1c:	041000ef          	jal	ra,85c <init_CSR>
      20:	018000ef          	jal	ra,38 <main>
      24:	00000013          	nop
      28:	00c12083          	lw	ra,12(sp)
      2c:	00812403          	lw	s0,8(sp)
      30:	01010113          	addi	sp,sp,16
      34:	00008067          	ret

00000038 <main>:
      38:	ff010113          	addi	sp,sp,-16
      3c:	00112623          	sw	ra,12(sp)
      40:	00812423          	sw	s0,8(sp)
      44:	01010413          	addi	s0,sp,16
      48:	00400593          	li	a1,4
      4c:	00100517          	auipc	a0,0x100
      50:	06050513          	addi	a0,a0,96 # 1000ac <_etext+0xfda80>
      54:	218000ef          	jal	ra,26c <print>
      58:	17d000ef          	jal	ra,9d4 <ui_mainloop>
      5c:	00000793          	li	a5,0
      60:	00078513          	mv	a0,a5
      64:	00c12083          	lw	ra,12(sp)
      68:	00812403          	lw	s0,8(sp)
      6c:	01010113          	addi	sp,sp,16
      70:	00008067          	ret

00000074 <wait_ms>:
      74:	fd010113          	addi	sp,sp,-48
      78:	02812623          	sw	s0,44(sp)
      7c:	03010413          	addi	s0,sp,48
      80:	fca42e23          	sw	a0,-36(s0)
      84:	00100797          	auipc	a5,0x100
      88:	31c78793          	addi	a5,a5,796 # 1003a0 <sys_time>
      8c:	0007a783          	lw	a5,0(a5)
      90:	fef42623          	sw	a5,-20(s0)
      94:	00000013          	nop
      98:	00100797          	auipc	a5,0x100
      9c:	30878793          	addi	a5,a5,776 # 1003a0 <sys_time>
      a0:	0007a703          	lw	a4,0(a5)
      a4:	fec42783          	lw	a5,-20(s0)
      a8:	40f707b3          	sub	a5,a4,a5
      ac:	fdc42703          	lw	a4,-36(s0)
      b0:	fee7e4e3          	bltu	a5,a4,98 <wait_ms+0x24>
      b4:	00000013          	nop
      b8:	00000013          	nop
      bc:	02c12403          	lw	s0,44(sp)
      c0:	03010113          	addi	sp,sp,48
      c4:	00008067          	ret

000000c8 <putc>:
      c8:	fe010113          	addi	sp,sp,-32
      cc:	00112e23          	sw	ra,28(sp)
      d0:	00812c23          	sw	s0,24(sp)
      d4:	02010413          	addi	s0,sp,32
      d8:	00050793          	mv	a5,a0
      dc:	00058713          	mv	a4,a1
      e0:	fef407a3          	sb	a5,-17(s0)
      e4:	00070793          	mv	a5,a4
      e8:	fef40723          	sb	a5,-18(s0)
      ec:	fef44703          	lbu	a4,-17(s0)
      f0:	00a00793          	li	a5,10
      f4:	06f71a63          	bne	a4,a5,168 <putc+0xa0>
      f8:	00100797          	auipc	a5,0x100
      fc:	2ac78793          	addi	a5,a5,684 # 1003a4 <monitor_write_cursor>
     100:	0007a783          	lw	a5,0(a5)
     104:	fc07f793          	andi	a5,a5,-64
     108:	04078713          	addi	a4,a5,64
     10c:	00100797          	auipc	a5,0x100
     110:	29878793          	addi	a5,a5,664 # 1003a4 <monitor_write_cursor>
     114:	00e7a023          	sw	a4,0(a5)
     118:	00100797          	auipc	a5,0x100
     11c:	29878793          	addi	a5,a5,664 # 1003b0 <vga_info>
     120:	0007a783          	lw	a5,0(a5)
     124:	01e78793          	addi	a5,a5,30
     128:	00679713          	slli	a4,a5,0x6
     12c:	00100797          	auipc	a5,0x100
     130:	27878793          	addi	a5,a5,632 # 1003a4 <monitor_write_cursor>
     134:	0007a783          	lw	a5,0(a5)
     138:	00f71463          	bne	a4,a5,140 <putc+0x78>
     13c:	32c000ef          	jal	ra,468 <scroll_screen>
     140:	00100797          	auipc	a5,0x100
     144:	26478793          	addi	a5,a5,612 # 1003a4 <monitor_write_cursor>
     148:	0007a703          	lw	a4,0(a5)
     14c:	000017b7          	lui	a5,0x1
     150:	f0078793          	addi	a5,a5,-256 # f00 <strtok+0x14c>
     154:	10f71063          	bne	a4,a5,254 <putc+0x18c>
     158:	00100797          	auipc	a5,0x100
     15c:	24c78793          	addi	a5,a5,588 # 1003a4 <monitor_write_cursor>
     160:	0007a023          	sw	zero,0(a5)
     164:	0f00006f          	j	254 <putc+0x18c>
     168:	fef44703          	lbu	a4,-17(s0)
     16c:	00900793          	li	a5,9
     170:	00f71c63          	bne	a4,a5,188 <putc+0xc0>
     174:	00400593          	li	a1,4
     178:	00100517          	auipc	a0,0x100
     17c:	e8850513          	addi	a0,a0,-376 # 100000 <_etext+0xfd9d4>
     180:	0ec000ef          	jal	ra,26c <print>
     184:	0d00006f          	j	254 <putc+0x18c>
     188:	fef44703          	lbu	a4,-17(s0)
     18c:	00800793          	li	a5,8
     190:	04f71a63          	bne	a4,a5,1e4 <putc+0x11c>
     194:	00100797          	auipc	a5,0x100
     198:	21478793          	addi	a5,a5,532 # 1003a8 <output_front_cursor>
     19c:	0007a703          	lw	a4,0(a5)
     1a0:	00100797          	auipc	a5,0x100
     1a4:	20478793          	addi	a5,a5,516 # 1003a4 <monitor_write_cursor>
     1a8:	0007a783          	lw	a5,0(a5)
     1ac:	0af77463          	bgeu	a4,a5,254 <putc+0x18c>
     1b0:	00100797          	auipc	a5,0x100
     1b4:	1f478793          	addi	a5,a5,500 # 1003a4 <monitor_write_cursor>
     1b8:	0007a783          	lw	a5,0(a5)
     1bc:	fff78713          	addi	a4,a5,-1
     1c0:	00100797          	auipc	a5,0x100
     1c4:	1e478793          	addi	a5,a5,484 # 1003a4 <monitor_write_cursor>
     1c8:	00e7a023          	sw	a4,0(a5)
     1cc:	00100797          	auipc	a5,0x100
     1d0:	1d878793          	addi	a5,a5,472 # 1003a4 <monitor_write_cursor>
     1d4:	0007a783          	lw	a5,0(a5)
     1d8:	00078513          	mv	a0,a5
     1dc:	560000ef          	jal	ra,73c <_erasec>
     1e0:	0740006f          	j	254 <putc+0x18c>
     1e4:	00100797          	auipc	a5,0x100
     1e8:	1c078793          	addi	a5,a5,448 # 1003a4 <monitor_write_cursor>
     1ec:	0007a783          	lw	a5,0(a5)
     1f0:	00178693          	addi	a3,a5,1
     1f4:	00100717          	auipc	a4,0x100
     1f8:	1b070713          	addi	a4,a4,432 # 1003a4 <monitor_write_cursor>
     1fc:	00d72023          	sw	a3,0(a4)
     200:	fee44683          	lbu	a3,-18(s0)
     204:	fef44703          	lbu	a4,-17(s0)
     208:	00078613          	mv	a2,a5
     20c:	00068593          	mv	a1,a3
     210:	00070513          	mv	a0,a4
     214:	4cc000ef          	jal	ra,6e0 <_setc>
     218:	00100797          	auipc	a5,0x100
     21c:	18c78793          	addi	a5,a5,396 # 1003a4 <monitor_write_cursor>
     220:	0007a703          	lw	a4,0(a5)
     224:	78000793          	li	a5,1920
     228:	00f71463          	bne	a4,a5,230 <putc+0x168>
     22c:	23c000ef          	jal	ra,468 <scroll_screen>
     230:	00100797          	auipc	a5,0x100
     234:	17478793          	addi	a5,a5,372 # 1003a4 <monitor_write_cursor>
     238:	0007a703          	lw	a4,0(a5)
     23c:	000017b7          	lui	a5,0x1
     240:	f0078793          	addi	a5,a5,-256 # f00 <strtok+0x14c>
     244:	00f71863          	bne	a4,a5,254 <putc+0x18c>
     248:	00100797          	auipc	a5,0x100
     24c:	15c78793          	addi	a5,a5,348 # 1003a4 <monitor_write_cursor>
     250:	0007a023          	sw	zero,0(a5)
     254:	360000ef          	jal	ra,5b4 <_update_cursor>
     258:	00000013          	nop
     25c:	01c12083          	lw	ra,28(sp)
     260:	01812403          	lw	s0,24(sp)
     264:	02010113          	addi	sp,sp,32
     268:	00008067          	ret

0000026c <print>:
     26c:	fd010113          	addi	sp,sp,-48
     270:	02112623          	sw	ra,44(sp)
     274:	02812423          	sw	s0,40(sp)
     278:	03010413          	addi	s0,sp,48
     27c:	fca42e23          	sw	a0,-36(s0)
     280:	00058793          	mv	a5,a1
     284:	fcf40da3          	sb	a5,-37(s0)
     288:	fdc42783          	lw	a5,-36(s0)
     28c:	0007c783          	lbu	a5,0(a5)
     290:	fef407a3          	sb	a5,-17(s0)
     294:	0300006f          	j	2c4 <print+0x58>
     298:	fdb44703          	lbu	a4,-37(s0)
     29c:	fef44783          	lbu	a5,-17(s0)
     2a0:	00070593          	mv	a1,a4
     2a4:	00078513          	mv	a0,a5
     2a8:	e21ff0ef          	jal	ra,c8 <putc>
     2ac:	fdc42783          	lw	a5,-36(s0)
     2b0:	00178793          	addi	a5,a5,1
     2b4:	fcf42e23          	sw	a5,-36(s0)
     2b8:	fdc42783          	lw	a5,-36(s0)
     2bc:	0007c783          	lbu	a5,0(a5)
     2c0:	fef407a3          	sb	a5,-17(s0)
     2c4:	fef44783          	lbu	a5,-17(s0)
     2c8:	fc0798e3          	bnez	a5,298 <print+0x2c>
     2cc:	00000013          	nop
     2d0:	00000013          	nop
     2d4:	02c12083          	lw	ra,44(sp)
     2d8:	02812403          	lw	s0,40(sp)
     2dc:	03010113          	addi	sp,sp,48
     2e0:	00008067          	ret

000002e4 <getc>:
     2e4:	fe010113          	addi	sp,sp,-32
     2e8:	00112e23          	sw	ra,28(sp)
     2ec:	00812c23          	sw	s0,24(sp)
     2f0:	02010413          	addi	s0,sp,32
     2f4:	00000013          	nop
     2f8:	4c8000ef          	jal	ra,7c0 <_next_key_arrived>
     2fc:	00050793          	mv	a5,a0
     300:	fe078ce3          	beqz	a5,2f8 <getc+0x14>
     304:	00100797          	auipc	a5,0x100
     308:	0a878793          	addi	a5,a5,168 # 1003ac <kb_info>
     30c:	0007c783          	lbu	a5,0(a5)
     310:	fef407a3          	sb	a5,-17(s0)
     314:	00100797          	auipc	a5,0x100
     318:	0a478793          	addi	a5,a5,164 # 1003b8 <input_controller>
     31c:	fef44703          	lbu	a4,-17(s0)
     320:	00e78023          	sb	a4,0(a5)
     324:	00100797          	auipc	a5,0x100
     328:	07c78793          	addi	a5,a5,124 # 1003a0 <sys_time>
     32c:	0007a703          	lw	a4,0(a5)
     330:	00100797          	auipc	a5,0x100
     334:	08878793          	addi	a5,a5,136 # 1003b8 <input_controller>
     338:	00e7a223          	sw	a4,4(a5)
     33c:	fef44783          	lbu	a5,-17(s0)
     340:	00400593          	li	a1,4
     344:	00078513          	mv	a0,a5
     348:	d81ff0ef          	jal	ra,c8 <putc>
     34c:	fef44783          	lbu	a5,-17(s0)
     350:	00078513          	mv	a0,a5
     354:	01c12083          	lw	ra,28(sp)
     358:	01812403          	lw	s0,24(sp)
     35c:	02010113          	addi	sp,sp,32
     360:	00008067          	ret

00000364 <getline>:
     364:	fd010113          	addi	sp,sp,-48
     368:	02112623          	sw	ra,44(sp)
     36c:	02812423          	sw	s0,40(sp)
     370:	03010413          	addi	s0,sp,48
     374:	fca42e23          	sw	a0,-36(s0)
     378:	fe042623          	sw	zero,-20(s0)
     37c:	0580006f          	j	3d4 <getline+0x70>
     380:	feb44703          	lbu	a4,-21(s0)
     384:	00800793          	li	a5,8
     388:	02f71663          	bne	a4,a5,3b4 <getline+0x50>
     38c:	fec42783          	lw	a5,-20(s0)
     390:	04f05263          	blez	a5,3d4 <getline+0x70>
     394:	fec42783          	lw	a5,-20(s0)
     398:	fff78793          	addi	a5,a5,-1
     39c:	fef42623          	sw	a5,-20(s0)
     3a0:	fec42783          	lw	a5,-20(s0)
     3a4:	fdc42703          	lw	a4,-36(s0)
     3a8:	00f707b3          	add	a5,a4,a5
     3ac:	00078023          	sb	zero,0(a5)
     3b0:	0240006f          	j	3d4 <getline+0x70>
     3b4:	fec42783          	lw	a5,-20(s0)
     3b8:	00178713          	addi	a4,a5,1
     3bc:	fee42623          	sw	a4,-20(s0)
     3c0:	00078713          	mv	a4,a5
     3c4:	fdc42783          	lw	a5,-36(s0)
     3c8:	00e787b3          	add	a5,a5,a4
     3cc:	feb44703          	lbu	a4,-21(s0)
     3d0:	00e78023          	sb	a4,0(a5)
     3d4:	f11ff0ef          	jal	ra,2e4 <getc>
     3d8:	00050793          	mv	a5,a0
     3dc:	fef405a3          	sb	a5,-21(s0)
     3e0:	feb44703          	lbu	a4,-21(s0)
     3e4:	00a00793          	li	a5,10
     3e8:	f8f71ce3          	bne	a4,a5,380 <getline+0x1c>
     3ec:	00000013          	nop
     3f0:	00000013          	nop
     3f4:	02c12083          	lw	ra,44(sp)
     3f8:	02812403          	lw	s0,40(sp)
     3fc:	03010113          	addi	sp,sp,48
     400:	00008067          	ret

00000404 <is_ctrl_c>:
     404:	ff010113          	addi	sp,sp,-16
     408:	00812623          	sw	s0,12(sp)
     40c:	01010413          	addi	s0,sp,16
     410:	00100797          	auipc	a5,0x100
     414:	f9c78793          	addi	a5,a5,-100 # 1003ac <kb_info>
     418:	0007c783          	lbu	a5,0(a5)
     41c:	0ff7f713          	andi	a4,a5,255
     420:	06300793          	li	a5,99
     424:	02f71663          	bne	a4,a5,450 <is_ctrl_c+0x4c>
     428:	00100797          	auipc	a5,0x100
     42c:	f8478793          	addi	a5,a5,-124 # 1003ac <kb_info>
     430:	0017c783          	lbu	a5,1(a5)
     434:	0ff7f793          	andi	a5,a5,255
     438:	0017d793          	srli	a5,a5,0x1
     43c:	0017f793          	andi	a5,a5,1
     440:	0ff7f793          	andi	a5,a5,255
     444:	00078663          	beqz	a5,450 <is_ctrl_c+0x4c>
     448:	00100793          	li	a5,1
     44c:	0080006f          	j	454 <is_ctrl_c+0x50>
     450:	00000793          	li	a5,0
     454:	0ff7f793          	andi	a5,a5,255
     458:	00078513          	mv	a0,a5
     45c:	00c12403          	lw	s0,12(sp)
     460:	01010113          	addi	sp,sp,16
     464:	00008067          	ret

00000468 <scroll_screen>:
     468:	fe010113          	addi	sp,sp,-32
     46c:	00112e23          	sw	ra,28(sp)
     470:	00812c23          	sw	s0,24(sp)
     474:	02010413          	addi	s0,sp,32
     478:	00100797          	auipc	a5,0x100
     47c:	f3878793          	addi	a5,a5,-200 # 1003b0 <vga_info>
     480:	0007a783          	lw	a5,0(a5)
     484:	00178713          	addi	a4,a5,1
     488:	00100797          	auipc	a5,0x100
     48c:	f2878793          	addi	a5,a5,-216 # 1003b0 <vga_info>
     490:	00e7a023          	sw	a4,0(a5)
     494:	00100797          	auipc	a5,0x100
     498:	f1c78793          	addi	a5,a5,-228 # 1003b0 <vga_info>
     49c:	0007a703          	lw	a4,0(a5)
     4a0:	01e00793          	li	a5,30
     4a4:	00f71863          	bne	a4,a5,4b4 <scroll_screen+0x4c>
     4a8:	00100797          	auipc	a5,0x100
     4ac:	f0878793          	addi	a5,a5,-248 # 1003b0 <vga_info>
     4b0:	0007a023          	sw	zero,0(a5)
     4b4:	00100797          	auipc	a5,0x100
     4b8:	ef078793          	addi	a5,a5,-272 # 1003a4 <monitor_write_cursor>
     4bc:	0007a783          	lw	a5,0(a5)
     4c0:	fef42623          	sw	a5,-20(s0)
     4c4:	0240006f          	j	4e8 <scroll_screen+0x80>
     4c8:	fec42783          	lw	a5,-20(s0)
     4cc:	00078613          	mv	a2,a5
     4d0:	00400593          	li	a1,4
     4d4:	02000513          	li	a0,32
     4d8:	208000ef          	jal	ra,6e0 <_setc>
     4dc:	fec42783          	lw	a5,-20(s0)
     4e0:	00178793          	addi	a5,a5,1
     4e4:	fef42623          	sw	a5,-20(s0)
     4e8:	00100797          	auipc	a5,0x100
     4ec:	ebc78793          	addi	a5,a5,-324 # 1003a4 <monitor_write_cursor>
     4f0:	0007a783          	lw	a5,0(a5)
     4f4:	04078713          	addi	a4,a5,64
     4f8:	fec42783          	lw	a5,-20(s0)
     4fc:	fce7e6e3          	bltu	a5,a4,4c8 <scroll_screen+0x60>
     500:	0b4000ef          	jal	ra,5b4 <_update_cursor>
     504:	00100797          	auipc	a5,0x100
     508:	d9478793          	addi	a5,a5,-620 # 100298 <p_vga_info>
     50c:	0007a783          	lw	a5,0(a5)
     510:	00100717          	auipc	a4,0x100
     514:	ea070713          	addi	a4,a4,-352 # 1003b0 <vga_info>
     518:	00072683          	lw	a3,0(a4)
     51c:	00d7a023          	sw	a3,0(a5)
     520:	00472703          	lw	a4,4(a4)
     524:	00e7a223          	sw	a4,4(a5)
     528:	00000013          	nop
     52c:	01c12083          	lw	ra,28(sp)
     530:	01812403          	lw	s0,24(sp)
     534:	02010113          	addi	sp,sp,32
     538:	00008067          	ret

0000053c <clear_screen>:
     53c:	fe010113          	addi	sp,sp,-32
     540:	00112e23          	sw	ra,28(sp)
     544:	00812c23          	sw	s0,24(sp)
     548:	02010413          	addi	s0,sp,32
     54c:	00100797          	auipc	a5,0x100
     550:	e6478793          	addi	a5,a5,-412 # 1003b0 <vga_info>
     554:	0007a783          	lw	a5,0(a5)
     558:	00679793          	slli	a5,a5,0x6
     55c:	fef42623          	sw	a5,-20(s0)
     560:	fec42783          	lw	a5,-20(s0)
     564:	78078793          	addi	a5,a5,1920
     568:	fef42423          	sw	a5,-24(s0)
     56c:	0240006f          	j	590 <clear_screen+0x54>
     570:	fec42783          	lw	a5,-20(s0)
     574:	00078613          	mv	a2,a5
     578:	00400593          	li	a1,4
     57c:	02000513          	li	a0,32
     580:	160000ef          	jal	ra,6e0 <_setc>
     584:	fec42783          	lw	a5,-20(s0)
     588:	00178793          	addi	a5,a5,1
     58c:	fef42623          	sw	a5,-20(s0)
     590:	fec42703          	lw	a4,-20(s0)
     594:	fe842783          	lw	a5,-24(s0)
     598:	fcf74ce3          	blt	a4,a5,570 <clear_screen+0x34>
     59c:	00000013          	nop
     5a0:	00000013          	nop
     5a4:	01c12083          	lw	ra,28(sp)
     5a8:	01812403          	lw	s0,24(sp)
     5ac:	02010113          	addi	sp,sp,32
     5b0:	00008067          	ret

000005b4 <_update_cursor>:
     5b4:	fe010113          	addi	sp,sp,-32
     5b8:	00112e23          	sw	ra,28(sp)
     5bc:	00812c23          	sw	s0,24(sp)
     5c0:	02010413          	addi	s0,sp,32
     5c4:	00100797          	auipc	a5,0x100
     5c8:	de078793          	addi	a5,a5,-544 # 1003a4 <monitor_write_cursor>
     5cc:	0007a783          	lw	a5,0(a5)
     5d0:	fe840693          	addi	a3,s0,-24
     5d4:	fec40713          	addi	a4,s0,-20
     5d8:	00070613          	mv	a2,a4
     5dc:	04000593          	li	a1,64
     5e0:	00078513          	mv	a0,a5
     5e4:	4b9000ef          	jal	ra,129c <_udiv_mod>
     5e8:	fec42783          	lw	a5,-20(s0)
     5ec:	01079793          	slli	a5,a5,0x10
     5f0:	0107d793          	srli	a5,a5,0x10
     5f4:	00479793          	slli	a5,a5,0x4
     5f8:	01079793          	slli	a5,a5,0x10
     5fc:	0107d793          	srli	a5,a5,0x10
     600:	00178793          	addi	a5,a5,1
     604:	01079713          	slli	a4,a5,0x10
     608:	01075713          	srli	a4,a4,0x10
     60c:	00100797          	auipc	a5,0x100
     610:	da478793          	addi	a5,a5,-604 # 1003b0 <vga_info>
     614:	00e79323          	sh	a4,6(a5)
     618:	fe842703          	lw	a4,-24(s0)
     61c:	03f00793          	li	a5,63
     620:	04f70263          	beq	a4,a5,664 <_update_cursor+0xb0>
     624:	fe842783          	lw	a5,-24(s0)
     628:	01079793          	slli	a5,a5,0x10
     62c:	0107d793          	srli	a5,a5,0x10
     630:	00078713          	mv	a4,a5
     634:	00070793          	mv	a5,a4
     638:	00379793          	slli	a5,a5,0x3
     63c:	00e787b3          	add	a5,a5,a4
     640:	01079793          	slli	a5,a5,0x10
     644:	0107d793          	srli	a5,a5,0x10
     648:	00178793          	addi	a5,a5,1
     64c:	01079713          	slli	a4,a5,0x10
     650:	01075713          	srli	a4,a4,0x10
     654:	00100797          	auipc	a5,0x100
     658:	d5c78793          	addi	a5,a5,-676 # 1003b0 <vga_info>
     65c:	00e79223          	sh	a4,4(a5)
     660:	0140006f          	j	674 <_update_cursor+0xc0>
     664:	00100797          	auipc	a5,0x100
     668:	d4c78793          	addi	a5,a5,-692 # 1003b0 <vga_info>
     66c:	00100713          	li	a4,1
     670:	00e79223          	sh	a4,4(a5)
     674:	00100797          	auipc	a5,0x100
     678:	c2478793          	addi	a5,a5,-988 # 100298 <p_vga_info>
     67c:	0007a783          	lw	a5,0(a5)
     680:	00100717          	auipc	a4,0x100
     684:	d3070713          	addi	a4,a4,-720 # 1003b0 <vga_info>
     688:	00072683          	lw	a3,0(a4)
     68c:	00d7a023          	sw	a3,0(a5)
     690:	00472703          	lw	a4,4(a4)
     694:	00e7a223          	sw	a4,4(a5)
     698:	00000013          	nop
     69c:	01c12083          	lw	ra,28(sp)
     6a0:	01812403          	lw	s0,24(sp)
     6a4:	02010113          	addi	sp,sp,32
     6a8:	00008067          	ret

000006ac <lock_output_front>:
     6ac:	ff010113          	addi	sp,sp,-16
     6b0:	00812623          	sw	s0,12(sp)
     6b4:	01010413          	addi	s0,sp,16
     6b8:	00100797          	auipc	a5,0x100
     6bc:	cec78793          	addi	a5,a5,-788 # 1003a4 <monitor_write_cursor>
     6c0:	0007a703          	lw	a4,0(a5)
     6c4:	00100797          	auipc	a5,0x100
     6c8:	ce478793          	addi	a5,a5,-796 # 1003a8 <output_front_cursor>
     6cc:	00e7a023          	sw	a4,0(a5)
     6d0:	00000013          	nop
     6d4:	00c12403          	lw	s0,12(sp)
     6d8:	01010113          	addi	sp,sp,16
     6dc:	00008067          	ret

000006e0 <_setc>:
     6e0:	fe010113          	addi	sp,sp,-32
     6e4:	00812e23          	sw	s0,28(sp)
     6e8:	02010413          	addi	s0,sp,32
     6ec:	00050793          	mv	a5,a0
     6f0:	00058713          	mv	a4,a1
     6f4:	fec42423          	sw	a2,-24(s0)
     6f8:	fef407a3          	sb	a5,-17(s0)
     6fc:	00070793          	mv	a5,a4
     700:	fef40723          	sb	a5,-18(s0)
     704:	00300737          	lui	a4,0x300
     708:	fe842783          	lw	a5,-24(s0)
     70c:	00f707b3          	add	a5,a4,a5
     710:	fef44703          	lbu	a4,-17(s0)
     714:	00e78023          	sb	a4,0(a5)
     718:	00400737          	lui	a4,0x400
     71c:	fe842783          	lw	a5,-24(s0)
     720:	00f707b3          	add	a5,a4,a5
     724:	fee44703          	lbu	a4,-18(s0)
     728:	00e78023          	sb	a4,0(a5)
     72c:	00000013          	nop
     730:	01c12403          	lw	s0,28(sp)
     734:	02010113          	addi	sp,sp,32
     738:	00008067          	ret

0000073c <_erasec>:
     73c:	fe010113          	addi	sp,sp,-32
     740:	00812e23          	sw	s0,28(sp)
     744:	02010413          	addi	s0,sp,32
     748:	fea42623          	sw	a0,-20(s0)
     74c:	00300737          	lui	a4,0x300
     750:	fec42783          	lw	a5,-20(s0)
     754:	00f707b3          	add	a5,a4,a5
     758:	00078023          	sb	zero,0(a5)
     75c:	00400737          	lui	a4,0x400
     760:	fec42783          	lw	a5,-20(s0)
     764:	00f707b3          	add	a5,a4,a5
     768:	00078023          	sb	zero,0(a5)
     76c:	00000013          	nop
     770:	01c12403          	lw	s0,28(sp)
     774:	02010113          	addi	sp,sp,32
     778:	00008067          	ret

0000077c <error>:
     77c:	fe010113          	addi	sp,sp,-32
     780:	00112e23          	sw	ra,28(sp)
     784:	00812c23          	sw	s0,24(sp)
     788:	02010413          	addi	s0,sp,32
     78c:	fea42623          	sw	a0,-20(s0)
     790:	00000593          	li	a1,0
     794:	00100517          	auipc	a0,0x100
     798:	87450513          	addi	a0,a0,-1932 # 100008 <_etext+0xfd9dc>
     79c:	ad1ff0ef          	jal	ra,26c <print>
     7a0:	00400593          	li	a1,4
     7a4:	fec42503          	lw	a0,-20(s0)
     7a8:	ac5ff0ef          	jal	ra,26c <print>
     7ac:	00000013          	nop
     7b0:	01c12083          	lw	ra,28(sp)
     7b4:	01812403          	lw	s0,24(sp)
     7b8:	02010113          	addi	sp,sp,32
     7bc:	00008067          	ret

000007c0 <_next_key_arrived>:
     7c0:	ff010113          	addi	sp,sp,-16
     7c4:	00812623          	sw	s0,12(sp)
     7c8:	01010413          	addi	s0,sp,16
     7cc:	00100797          	auipc	a5,0x100
     7d0:	be078793          	addi	a5,a5,-1056 # 1003ac <kb_info>
     7d4:	0007c783          	lbu	a5,0(a5)
     7d8:	0ff7f793          	andi	a5,a5,255
     7dc:	06078663          	beqz	a5,848 <_next_key_arrived+0x88>
     7e0:	00100797          	auipc	a5,0x100
     7e4:	bcc78793          	addi	a5,a5,-1076 # 1003ac <kb_info>
     7e8:	0007c783          	lbu	a5,0(a5)
     7ec:	0ff7f713          	andi	a4,a5,255
     7f0:	00100797          	auipc	a5,0x100
     7f4:	bc878793          	addi	a5,a5,-1080 # 1003b8 <input_controller>
     7f8:	0007c783          	lbu	a5,0(a5)
     7fc:	02f71863          	bne	a4,a5,82c <_next_key_arrived+0x6c>
     800:	00100797          	auipc	a5,0x100
     804:	ba078793          	addi	a5,a5,-1120 # 1003a0 <sys_time>
     808:	0007a703          	lw	a4,0(a5)
     80c:	00100797          	auipc	a5,0x100
     810:	bac78793          	addi	a5,a5,-1108 # 1003b8 <input_controller>
     814:	0047a783          	lw	a5,4(a5)
     818:	40f707b3          	sub	a5,a4,a5
     81c:	1f57b793          	sltiu	a5,a5,501
     820:	0017c793          	xori	a5,a5,1
     824:	0ff7f793          	andi	a5,a5,255
     828:	0240006f          	j	84c <_next_key_arrived+0x8c>
     82c:	00100797          	auipc	a5,0x100
     830:	b8078793          	addi	a5,a5,-1152 # 1003ac <kb_info>
     834:	0007c783          	lbu	a5,0(a5)
     838:	0ff7f793          	andi	a5,a5,255
     83c:	00f037b3          	snez	a5,a5
     840:	0ff7f793          	andi	a5,a5,255
     844:	0080006f          	j	84c <_next_key_arrived+0x8c>
     848:	00000793          	li	a5,0
     84c:	00078513          	mv	a0,a5
     850:	00c12403          	lw	s0,12(sp)
     854:	01010113          	addi	sp,sp,16
     858:	00008067          	ret

0000085c <init_CSR>:
     85c:	fe010113          	addi	sp,sp,-32
     860:	00812e23          	sw	s0,28(sp)
     864:	02010413          	addi	s0,sp,32
     868:	00002797          	auipc	a5,0x2
     86c:	d6078793          	addi	a5,a5,-672 # 25c8 <int_handler_entrance>
     870:	fef42623          	sw	a5,-20(s0)
     874:	fec42783          	lw	a5,-20(s0)
     878:	fe842703          	lw	a4,-24(s0)
     87c:	00078713          	mv	a4,a5
     880:	30571073          	csrw	mtvec,a4
     884:	007007b7          	lui	a5,0x700
     888:	34079073          	csrw	mscratch,a5
     88c:	00800793          	li	a5,8
     890:	30079073          	csrw	mstatus,a5
     894:	00000013          	nop
     898:	01c12403          	lw	s0,28(sp)
     89c:	02010113          	addi	sp,sp,32
     8a0:	00008067          	ret

000008a4 <irq_handler>:
     8a4:	fd010113          	addi	sp,sp,-48
     8a8:	02812623          	sw	s0,44(sp)
     8ac:	03010413          	addi	s0,sp,48
     8b0:	fca42e23          	sw	a0,-36(s0)
     8b4:	fdc42703          	lw	a4,-36(s0)
     8b8:	800007b7          	lui	a5,0x80000
     8bc:	00778793          	addi	a5,a5,7 # 80000007 <_end+0x7feff807>
     8c0:	0af71063          	bne	a4,a5,960 <irq_handler+0xbc>
     8c4:	00100797          	auipc	a5,0x100
     8c8:	adc78793          	addi	a5,a5,-1316 # 1003a0 <sys_time>
     8cc:	0007a783          	lw	a5,0(a5)
     8d0:	00178713          	addi	a4,a5,1
     8d4:	00100797          	auipc	a5,0x100
     8d8:	acc78793          	addi	a5,a5,-1332 # 1003a0 <sys_time>
     8dc:	00e7a023          	sw	a4,0(a5)
     8e0:	00100797          	auipc	a5,0x100
     8e4:	9b478793          	addi	a5,a5,-1612 # 100294 <p_kb_info>
     8e8:	0007a783          	lw	a5,0(a5)
     8ec:	0007c703          	lbu	a4,0(a5)
     8f0:	fee40623          	sb	a4,-20(s0)
     8f4:	0017c783          	lbu	a5,1(a5)
     8f8:	fef406a3          	sb	a5,-19(s0)
     8fc:	00100797          	auipc	a5,0x100
     900:	ab078793          	addi	a5,a5,-1360 # 1003ac <kb_info>
     904:	0007c783          	lbu	a5,0(a5)
     908:	0ff7f713          	andi	a4,a5,255
     90c:	fec44783          	lbu	a5,-20(s0)
     910:	04f70863          	beq	a4,a5,960 <irq_handler+0xbc>
     914:	00100797          	auipc	a5,0x100
     918:	a9878793          	addi	a5,a5,-1384 # 1003ac <kb_info>
     91c:	0007c783          	lbu	a5,0(a5)
     920:	0ff7f713          	andi	a4,a5,255
     924:	00100797          	auipc	a5,0x100
     928:	a9478793          	addi	a5,a5,-1388 # 1003b8 <input_controller>
     92c:	00e78023          	sb	a4,0(a5)
     930:	00100797          	auipc	a5,0x100
     934:	a7078793          	addi	a5,a5,-1424 # 1003a0 <sys_time>
     938:	0007a703          	lw	a4,0(a5)
     93c:	00100797          	auipc	a5,0x100
     940:	a7c78793          	addi	a5,a5,-1412 # 1003b8 <input_controller>
     944:	00e7a223          	sw	a4,4(a5)
     948:	00100797          	auipc	a5,0x100
     94c:	a6478793          	addi	a5,a5,-1436 # 1003ac <kb_info>
     950:	fec44703          	lbu	a4,-20(s0)
     954:	00e78023          	sb	a4,0(a5)
     958:	fed44703          	lbu	a4,-19(s0)
     95c:	00e780a3          	sb	a4,1(a5)
     960:	00000013          	nop
     964:	02c12403          	lw	s0,44(sp)
     968:	03010113          	addi	sp,sp,48
     96c:	00008067          	ret

00000970 <init_io_mm>:
     970:	ff010113          	addi	sp,sp,-16
     974:	00812623          	sw	s0,12(sp)
     978:	01010413          	addi	s0,sp,16
     97c:	00100797          	auipc	a5,0x100
     980:	a3478793          	addi	a5,a5,-1484 # 1003b0 <vga_info>
     984:	00100713          	li	a4,1
     988:	00e79223          	sh	a4,4(a5)
     98c:	00100797          	auipc	a5,0x100
     990:	a2478793          	addi	a5,a5,-1500 # 1003b0 <vga_info>
     994:	00100713          	li	a4,1
     998:	00e79323          	sh	a4,6(a5)
     99c:	00100797          	auipc	a5,0x100
     9a0:	a1478793          	addi	a5,a5,-1516 # 1003b0 <vga_info>
     9a4:	0007a023          	sw	zero,0(a5)
     9a8:	002007b7          	lui	a5,0x200
     9ac:	00100717          	auipc	a4,0x100
     9b0:	a0470713          	addi	a4,a4,-1532 # 1003b0 <vga_info>
     9b4:	00072683          	lw	a3,0(a4)
     9b8:	00d7a023          	sw	a3,0(a5) # 200000 <_end+0xff800>
     9bc:	00472703          	lw	a4,4(a4)
     9c0:	00e7a223          	sw	a4,4(a5)
     9c4:	00000013          	nop
     9c8:	00c12403          	lw	s0,12(sp)
     9cc:	01010113          	addi	sp,sp,16
     9d0:	00008067          	ret

000009d4 <ui_mainloop>:
     9d4:	fc010113          	addi	sp,sp,-64
     9d8:	02112e23          	sw	ra,60(sp)
     9dc:	02812c23          	sw	s0,56(sp)
     9e0:	04010413          	addi	s0,sp,64
     9e4:	00400593          	li	a1,4
     9e8:	000ff517          	auipc	a0,0xff
     9ec:	62850513          	addi	a0,a0,1576 # 100010 <_etext+0xfd9e4>
     9f0:	87dff0ef          	jal	ra,26c <print>
     9f4:	cb9ff0ef          	jal	ra,6ac <lock_output_front>
     9f8:	fcc40793          	addi	a5,s0,-52
     9fc:	00078513          	mv	a0,a5
     a00:	965ff0ef          	jal	ra,364 <getline>
     a04:	fcc40793          	addi	a5,s0,-52
     a08:	000ff597          	auipc	a1,0xff
     a0c:	60c58593          	addi	a1,a1,1548 # 100014 <_etext+0xfd9e8>
     a10:	00078513          	mv	a0,a5
     a14:	3a0000ef          	jal	ra,db4 <strtok>
     a18:	00050793          	mv	a5,a0
     a1c:	fef42623          	sw	a5,-20(s0)
     a20:	000ff597          	auipc	a1,0xff
     a24:	5f858593          	addi	a1,a1,1528 # 100018 <_etext+0xfd9ec>
     a28:	fec42503          	lw	a0,-20(s0)
     a2c:	2ec000ef          	jal	ra,d18 <strcmp>
     a30:	00050793          	mv	a5,a0
     a34:	00079663          	bnez	a5,a40 <ui_mainloop+0x6c>
     a38:	078000ef          	jal	ra,ab0 <hello>
     a3c:	fa9ff06f          	j	9e4 <ui_mainloop+0x10>
     a40:	000ff597          	auipc	a1,0xff
     a44:	5e058593          	addi	a1,a1,1504 # 100020 <_etext+0xfd9f4>
     a48:	fec42503          	lw	a0,-20(s0)
     a4c:	2cc000ef          	jal	ra,d18 <strcmp>
     a50:	00050793          	mv	a5,a0
     a54:	00079663          	bnez	a5,a60 <ui_mainloop+0x8c>
     a58:	08c000ef          	jal	ra,ae4 <time>
     a5c:	f89ff06f          	j	9e4 <ui_mainloop+0x10>
     a60:	000ff597          	auipc	a1,0xff
     a64:	5c858593          	addi	a1,a1,1480 # 100028 <_etext+0xfd9fc>
     a68:	fec42503          	lw	a0,-20(s0)
     a6c:	2ac000ef          	jal	ra,d18 <strcmp>
     a70:	00050793          	mv	a5,a0
     a74:	00079663          	bnez	a5,a80 <ui_mainloop+0xac>
     a78:	0f4000ef          	jal	ra,b6c <fib>
     a7c:	f69ff06f          	j	9e4 <ui_mainloop+0x10>
     a80:	000ff597          	auipc	a1,0xff
     a84:	5ac58593          	addi	a1,a1,1452 # 10002c <_etext+0xfda00>
     a88:	fec42503          	lw	a0,-20(s0)
     a8c:	28c000ef          	jal	ra,d18 <strcmp>
     a90:	00050793          	mv	a5,a0
     a94:	00079663          	bnez	a5,aa0 <ui_mainloop+0xcc>
     a98:	1a0000ef          	jal	ra,c38 <calc>
     a9c:	f49ff06f          	j	9e4 <ui_mainloop+0x10>
     aa0:	000ff517          	auipc	a0,0xff
     aa4:	59450513          	addi	a0,a0,1428 # 100034 <_etext+0xfda08>
     aa8:	cd5ff0ef          	jal	ra,77c <error>
     aac:	f39ff06f          	j	9e4 <ui_mainloop+0x10>

00000ab0 <hello>:
     ab0:	ff010113          	addi	sp,sp,-16
     ab4:	00112623          	sw	ra,12(sp)
     ab8:	00812423          	sw	s0,8(sp)
     abc:	01010413          	addi	s0,sp,16
     ac0:	00400593          	li	a1,4
     ac4:	000ff517          	auipc	a0,0xff
     ac8:	58450513          	addi	a0,a0,1412 # 100048 <_etext+0xfda1c>
     acc:	fa0ff0ef          	jal	ra,26c <print>
     ad0:	00000013          	nop
     ad4:	00c12083          	lw	ra,12(sp)
     ad8:	00812403          	lw	s0,8(sp)
     adc:	01010113          	addi	sp,sp,16
     ae0:	00008067          	ret

00000ae4 <time>:
     ae4:	fe010113          	addi	sp,sp,-32
     ae8:	00112e23          	sw	ra,28(sp)
     aec:	00812c23          	sw	s0,24(sp)
     af0:	02010413          	addi	s0,sp,32
     af4:	0540006f          	j	b48 <time+0x64>
     af8:	00400593          	li	a1,4
     afc:	000ff517          	auipc	a0,0xff
     b00:	55c50513          	addi	a0,a0,1372 # 100058 <_etext+0xfda2c>
     b04:	f68ff0ef          	jal	ra,26c <print>
     b08:	00100797          	auipc	a5,0x100
     b0c:	89878793          	addi	a5,a5,-1896 # 1003a0 <sys_time>
     b10:	0007a783          	lw	a5,0(a5)
     b14:	00078713          	mv	a4,a5
     b18:	fe440793          	addi	a5,s0,-28
     b1c:	00078593          	mv	a1,a5
     b20:	00070513          	mv	a0,a4
     b24:	438000ef          	jal	ra,f5c <itoa>
     b28:	fe440793          	addi	a5,s0,-28
     b2c:	00400593          	li	a1,4
     b30:	00078513          	mv	a0,a5
     b34:	f38ff0ef          	jal	ra,26c <print>
     b38:	00400593          	li	a1,4
     b3c:	000ff517          	auipc	a0,0xff
     b40:	52850513          	addi	a0,a0,1320 # 100064 <_etext+0xfda38>
     b44:	f28ff0ef          	jal	ra,26c <print>
     b48:	8bdff0ef          	jal	ra,404 <is_ctrl_c>
     b4c:	00050793          	mv	a5,a0
     b50:	fa0784e3          	beqz	a5,af8 <time+0x14>
     b54:	00000013          	nop
     b58:	00000013          	nop
     b5c:	01c12083          	lw	ra,28(sp)
     b60:	01812403          	lw	s0,24(sp)
     b64:	02010113          	addi	sp,sp,32
     b68:	00008067          	ret

00000b6c <fib>:
     b6c:	fd010113          	addi	sp,sp,-48
     b70:	02112623          	sw	ra,44(sp)
     b74:	02812423          	sw	s0,40(sp)
     b78:	03010413          	addi	s0,sp,48
     b7c:	000ff597          	auipc	a1,0xff
     b80:	49858593          	addi	a1,a1,1176 # 100014 <_etext+0xfd9e8>
     b84:	00000513          	li	a0,0
     b88:	22c000ef          	jal	ra,db4 <strtok>
     b8c:	00050793          	mv	a5,a0
     b90:	fef42223          	sw	a5,-28(s0)
     b94:	fe442503          	lw	a0,-28(s0)
     b98:	594000ef          	jal	ra,112c <atoi>
     b9c:	fea42623          	sw	a0,-20(s0)
     ba0:	fec42783          	lw	a5,-20(s0)
     ba4:	0007da63          	bgez	a5,bb8 <fib+0x4c>
     ba8:	000ff517          	auipc	a0,0xff
     bac:	4c050513          	addi	a0,a0,1216 # 100068 <_etext+0xfda3c>
     bb0:	bcdff0ef          	jal	ra,77c <error>
     bb4:	0700006f          	j	c24 <fib+0xb8>
     bb8:	00100793          	li	a5,1
     bbc:	fef42423          	sw	a5,-24(s0)
     bc0:	0200006f          	j	be0 <fib+0x74>
     bc4:	fe842703          	lw	a4,-24(s0)
     bc8:	fec42783          	lw	a5,-20(s0)
     bcc:	02f707b3          	mul	a5,a4,a5
     bd0:	fef42423          	sw	a5,-24(s0)
     bd4:	fec42783          	lw	a5,-20(s0)
     bd8:	fff78793          	addi	a5,a5,-1
     bdc:	fef42623          	sw	a5,-20(s0)
     be0:	fec42783          	lw	a5,-20(s0)
     be4:	fe0790e3          	bnez	a5,bc4 <fib+0x58>
     be8:	00400593          	li	a1,4
     bec:	000ff517          	auipc	a0,0xff
     bf0:	49c50513          	addi	a0,a0,1180 # 100088 <_etext+0xfda5c>
     bf4:	e78ff0ef          	jal	ra,26c <print>
     bf8:	fd840793          	addi	a5,s0,-40
     bfc:	00078593          	mv	a1,a5
     c00:	fe842503          	lw	a0,-24(s0)
     c04:	358000ef          	jal	ra,f5c <itoa>
     c08:	fd840793          	addi	a5,s0,-40
     c0c:	00400593          	li	a1,4
     c10:	00078513          	mv	a0,a5
     c14:	e58ff0ef          	jal	ra,26c <print>
     c18:	00400593          	li	a1,4
     c1c:	00a00513          	li	a0,10
     c20:	ca8ff0ef          	jal	ra,c8 <putc>
     c24:	00000013          	nop
     c28:	02c12083          	lw	ra,44(sp)
     c2c:	02812403          	lw	s0,40(sp)
     c30:	03010113          	addi	sp,sp,48
     c34:	00008067          	ret

00000c38 <calc>:
     c38:	fd010113          	addi	sp,sp,-48
     c3c:	02112623          	sw	ra,44(sp)
     c40:	02812423          	sw	s0,40(sp)
     c44:	03010413          	addi	s0,sp,48
     c48:	000ff597          	auipc	a1,0xff
     c4c:	44c58593          	addi	a1,a1,1100 # 100094 <_etext+0xfda68>
     c50:	00000513          	li	a0,0
     c54:	160000ef          	jal	ra,db4 <strtok>
     c58:	00050793          	mv	a5,a0
     c5c:	fef42623          	sw	a5,-20(s0)
     c60:	fe842583          	lw	a1,-24(s0)
     c64:	fec42503          	lw	a0,-20(s0)
     c68:	0ed010ef          	jal	ra,2554 <calc_expr>
     c6c:	fea42223          	sw	a0,-28(s0)
     c70:	fe842783          	lw	a5,-24(s0)
     c74:	0007c783          	lbu	a5,0(a5)
     c78:	02078a63          	beqz	a5,cac <calc+0x74>
     c7c:	fd840793          	addi	a5,s0,-40
     c80:	00078593          	mv	a1,a5
     c84:	fe442503          	lw	a0,-28(s0)
     c88:	2d4000ef          	jal	ra,f5c <itoa>
     c8c:	fd840793          	addi	a5,s0,-40
     c90:	00400593          	li	a1,4
     c94:	00078513          	mv	a0,a5
     c98:	dd4ff0ef          	jal	ra,26c <print>
     c9c:	00400593          	li	a1,4
     ca0:	00a00513          	li	a0,10
     ca4:	c24ff0ef          	jal	ra,c8 <putc>
     ca8:	0100006f          	j	cb8 <calc+0x80>
     cac:	000ff517          	auipc	a0,0xff
     cb0:	3ec50513          	addi	a0,a0,1004 # 100098 <_etext+0xfda6c>
     cb4:	ac9ff0ef          	jal	ra,77c <error>
     cb8:	00000013          	nop
     cbc:	02c12083          	lw	ra,44(sp)
     cc0:	02812403          	lw	s0,40(sp)
     cc4:	03010113          	addi	sp,sp,48
     cc8:	00008067          	ret

00000ccc <isdigit>:
     ccc:	fe010113          	addi	sp,sp,-32
     cd0:	00812e23          	sw	s0,28(sp)
     cd4:	02010413          	addi	s0,sp,32
     cd8:	00050793          	mv	a5,a0
     cdc:	fef407a3          	sb	a5,-17(s0)
     ce0:	fef44703          	lbu	a4,-17(s0)
     ce4:	02f00793          	li	a5,47
     ce8:	00e7fc63          	bgeu	a5,a4,d00 <isdigit+0x34>
     cec:	fef44703          	lbu	a4,-17(s0)
     cf0:	03900793          	li	a5,57
     cf4:	00e7e663          	bltu	a5,a4,d00 <isdigit+0x34>
     cf8:	00100793          	li	a5,1
     cfc:	0080006f          	j	d04 <isdigit+0x38>
     d00:	00000793          	li	a5,0
     d04:	0ff7f793          	andi	a5,a5,255
     d08:	00078513          	mv	a0,a5
     d0c:	01c12403          	lw	s0,28(sp)
     d10:	02010113          	addi	sp,sp,32
     d14:	00008067          	ret

00000d18 <strcmp>:
     d18:	fd010113          	addi	sp,sp,-48
     d1c:	02812623          	sw	s0,44(sp)
     d20:	03010413          	addi	s0,sp,48
     d24:	fca42e23          	sw	a0,-36(s0)
     d28:	fcb42c23          	sw	a1,-40(s0)
     d2c:	fe042623          	sw	zero,-20(s0)
     d30:	01c0006f          	j	d4c <strcmp+0x34>
     d34:	fdc42783          	lw	a5,-36(s0)
     d38:	00178793          	addi	a5,a5,1
     d3c:	fcf42e23          	sw	a5,-36(s0)
     d40:	fd842783          	lw	a5,-40(s0)
     d44:	00178793          	addi	a5,a5,1
     d48:	fcf42c23          	sw	a5,-40(s0)
     d4c:	fdc42783          	lw	a5,-36(s0)
     d50:	0007c783          	lbu	a5,0(a5)
     d54:	00078713          	mv	a4,a5
     d58:	fd842783          	lw	a5,-40(s0)
     d5c:	0007c783          	lbu	a5,0(a5)
     d60:	40f707b3          	sub	a5,a4,a5
     d64:	fef42623          	sw	a5,-20(s0)
     d68:	fec42783          	lw	a5,-20(s0)
     d6c:	00079863          	bnez	a5,d7c <strcmp+0x64>
     d70:	fd842783          	lw	a5,-40(s0)
     d74:	0007c783          	lbu	a5,0(a5)
     d78:	fa079ee3          	bnez	a5,d34 <strcmp+0x1c>
     d7c:	fec42783          	lw	a5,-20(s0)
     d80:	0007d863          	bgez	a5,d90 <strcmp+0x78>
     d84:	fff00793          	li	a5,-1
     d88:	fef42623          	sw	a5,-20(s0)
     d8c:	0140006f          	j	da0 <strcmp+0x88>
     d90:	fec42783          	lw	a5,-20(s0)
     d94:	00f05663          	blez	a5,da0 <strcmp+0x88>
     d98:	00100793          	li	a5,1
     d9c:	fef42623          	sw	a5,-20(s0)
     da0:	fec42783          	lw	a5,-20(s0)
     da4:	00078513          	mv	a0,a5
     da8:	02c12403          	lw	s0,44(sp)
     dac:	03010113          	addi	sp,sp,48
     db0:	00008067          	ret

00000db4 <strtok>:
     db4:	fc010113          	addi	sp,sp,-64
     db8:	02812e23          	sw	s0,60(sp)
     dbc:	04010413          	addi	s0,sp,64
     dc0:	fca42623          	sw	a0,-52(s0)
     dc4:	fcb42423          	sw	a1,-56(s0)
     dc8:	fc842783          	lw	a5,-56(s0)
     dcc:	00079663          	bnez	a5,dd8 <strtok+0x24>
     dd0:	00000793          	li	a5,0
     dd4:	1780006f          	j	f4c <strtok+0x198>
     dd8:	fcc42783          	lw	a5,-52(s0)
     ddc:	00079e63          	bnez	a5,df8 <strtok+0x44>
     de0:	000ff797          	auipc	a5,0xff
     de4:	4bc78793          	addi	a5,a5,1212 # 10029c <s_mem.0>
     de8:	0007a783          	lw	a5,0(a5)
     dec:	00079663          	bnez	a5,df8 <strtok+0x44>
     df0:	00000793          	li	a5,0
     df4:	1580006f          	j	f4c <strtok+0x198>
     df8:	fcc42783          	lw	a5,-52(s0)
     dfc:	00078863          	beqz	a5,e0c <strtok+0x58>
     e00:	fcc42783          	lw	a5,-52(s0)
     e04:	fef42623          	sw	a5,-20(s0)
     e08:	0140006f          	j	e1c <strtok+0x68>
     e0c:	000ff797          	auipc	a5,0xff
     e10:	49078793          	addi	a5,a5,1168 # 10029c <s_mem.0>
     e14:	0007a783          	lw	a5,0(a5)
     e18:	fef42623          	sw	a5,-20(s0)
     e1c:	00100793          	li	a5,1
     e20:	fef42223          	sw	a5,-28(s0)
     e24:	05c0006f          	j	e80 <strtok+0xcc>
     e28:	fc842783          	lw	a5,-56(s0)
     e2c:	fef42423          	sw	a5,-24(s0)
     e30:	0100006f          	j	e40 <strtok+0x8c>
     e34:	fe842783          	lw	a5,-24(s0)
     e38:	00178793          	addi	a5,a5,1
     e3c:	fef42423          	sw	a5,-24(s0)
     e40:	fe842783          	lw	a5,-24(s0)
     e44:	0007c783          	lbu	a5,0(a5)
     e48:	00078c63          	beqz	a5,e60 <strtok+0xac>
     e4c:	fec42783          	lw	a5,-20(s0)
     e50:	0007c703          	lbu	a4,0(a5)
     e54:	fe842783          	lw	a5,-24(s0)
     e58:	0007c783          	lbu	a5,0(a5)
     e5c:	fcf71ce3          	bne	a4,a5,e34 <strtok+0x80>
     e60:	fe842783          	lw	a5,-24(s0)
     e64:	0007c783          	lbu	a5,0(a5)
     e68:	00078a63          	beqz	a5,e7c <strtok+0xc8>
     e6c:	fec42783          	lw	a5,-20(s0)
     e70:	00178793          	addi	a5,a5,1
     e74:	fef42623          	sw	a5,-20(s0)
     e78:	0080006f          	j	e80 <strtok+0xcc>
     e7c:	fe042223          	sw	zero,-28(s0)
     e80:	fe442783          	lw	a5,-28(s0)
     e84:	fa0792e3          	bnez	a5,e28 <strtok+0x74>
     e88:	000ff797          	auipc	a5,0xff
     e8c:	41478793          	addi	a5,a5,1044 # 10029c <s_mem.0>
     e90:	fec42703          	lw	a4,-20(s0)
     e94:	00e7a023          	sw	a4,0(a5)
     e98:	0880006f          	j	f20 <strtok+0x16c>
     e9c:	fc842783          	lw	a5,-56(s0)
     ea0:	fef42423          	sw	a5,-24(s0)
     ea4:	0100006f          	j	eb4 <strtok+0x100>
     ea8:	fe842783          	lw	a5,-24(s0)
     eac:	00178793          	addi	a5,a5,1
     eb0:	fef42423          	sw	a5,-24(s0)
     eb4:	fe842783          	lw	a5,-24(s0)
     eb8:	0007c783          	lbu	a5,0(a5)
     ebc:	00078c63          	beqz	a5,ed4 <strtok+0x120>
     ec0:	fec42783          	lw	a5,-20(s0)
     ec4:	0007c703          	lbu	a4,0(a5)
     ec8:	fe842783          	lw	a5,-24(s0)
     ecc:	0007c783          	lbu	a5,0(a5)
     ed0:	fcf71ce3          	bne	a4,a5,ea8 <strtok+0xf4>
     ed4:	fe842783          	lw	a5,-24(s0)
     ed8:	0007c783          	lbu	a5,0(a5)
     edc:	02078c63          	beqz	a5,f14 <strtok+0x160>
     ee0:	fec42783          	lw	a5,-20(s0)
     ee4:	00078023          	sb	zero,0(a5)
     ee8:	000ff797          	auipc	a5,0xff
     eec:	3b478793          	addi	a5,a5,948 # 10029c <s_mem.0>
     ef0:	0007a783          	lw	a5,0(a5)
     ef4:	fcf42e23          	sw	a5,-36(s0)
     ef8:	fec42783          	lw	a5,-20(s0)
     efc:	00178713          	addi	a4,a5,1
     f00:	000ff797          	auipc	a5,0xff
     f04:	39c78793          	addi	a5,a5,924 # 10029c <s_mem.0>
     f08:	00e7a023          	sw	a4,0(a5)
     f0c:	fdc42783          	lw	a5,-36(s0)
     f10:	03c0006f          	j	f4c <strtok+0x198>
     f14:	fec42783          	lw	a5,-20(s0)
     f18:	00178793          	addi	a5,a5,1
     f1c:	fef42623          	sw	a5,-20(s0)
     f20:	fec42783          	lw	a5,-20(s0)
     f24:	0007c783          	lbu	a5,0(a5)
     f28:	f6079ae3          	bnez	a5,e9c <strtok+0xe8>
     f2c:	000ff797          	auipc	a5,0xff
     f30:	37078793          	addi	a5,a5,880 # 10029c <s_mem.0>
     f34:	0007a783          	lw	a5,0(a5)
     f38:	fef42023          	sw	a5,-32(s0)
     f3c:	000ff797          	auipc	a5,0xff
     f40:	36078793          	addi	a5,a5,864 # 10029c <s_mem.0>
     f44:	0007a023          	sw	zero,0(a5)
     f48:	fe042783          	lw	a5,-32(s0)
     f4c:	00078513          	mv	a0,a5
     f50:	03c12403          	lw	s0,60(sp)
     f54:	04010113          	addi	sp,sp,64
     f58:	00008067          	ret

00000f5c <itoa>:
     f5c:	fc010113          	addi	sp,sp,-64
     f60:	02112e23          	sw	ra,60(sp)
     f64:	02812c23          	sw	s0,56(sp)
     f68:	04010413          	addi	s0,sp,64
     f6c:	fca42623          	sw	a0,-52(s0)
     f70:	fcb42423          	sw	a1,-56(s0)
     f74:	fcc42783          	lw	a5,-52(s0)
     f78:	fef42223          	sw	a5,-28(s0)
     f7c:	fe442783          	lw	a5,-28(s0)
     f80:	0007d863          	bgez	a5,f90 <itoa+0x34>
     f84:	fcc42783          	lw	a5,-52(s0)
     f88:	40f007b3          	neg	a5,a5
     f8c:	fcf42623          	sw	a5,-52(s0)
     f90:	fe042623          	sw	zero,-20(s0)
     f94:	fcc42783          	lw	a5,-52(s0)
     f98:	fcf42e23          	sw	a5,-36(s0)
     f9c:	fdc42783          	lw	a5,-36(s0)
     fa0:	fcf42623          	sw	a5,-52(s0)
     fa4:	fcc42783          	lw	a5,-52(s0)
     fa8:	fd840693          	addi	a3,s0,-40
     fac:	fdc40713          	addi	a4,s0,-36
     fb0:	00070613          	mv	a2,a4
     fb4:	00a00593          	li	a1,10
     fb8:	00078513          	mv	a0,a5
     fbc:	2e0000ef          	jal	ra,129c <_udiv_mod>
     fc0:	fd842783          	lw	a5,-40(s0)
     fc4:	0ff7f713          	andi	a4,a5,255
     fc8:	fec42783          	lw	a5,-20(s0)
     fcc:	00178693          	addi	a3,a5,1
     fd0:	fed42623          	sw	a3,-20(s0)
     fd4:	00078693          	mv	a3,a5
     fd8:	fc842783          	lw	a5,-56(s0)
     fdc:	00d787b3          	add	a5,a5,a3
     fe0:	03070713          	addi	a4,a4,48
     fe4:	0ff77713          	andi	a4,a4,255
     fe8:	00e78023          	sb	a4,0(a5)
     fec:	fdc42783          	lw	a5,-36(s0)
     ff0:	fa0796e3          	bnez	a5,f9c <itoa+0x40>
     ff4:	fe442783          	lw	a5,-28(s0)
     ff8:	0207d263          	bgez	a5,101c <itoa+0xc0>
     ffc:	fec42783          	lw	a5,-20(s0)
    1000:	00178713          	addi	a4,a5,1
    1004:	fee42623          	sw	a4,-20(s0)
    1008:	00078713          	mv	a4,a5
    100c:	fc842783          	lw	a5,-56(s0)
    1010:	00e787b3          	add	a5,a5,a4
    1014:	02d00713          	li	a4,45
    1018:	00e78023          	sb	a4,0(a5)
    101c:	fec42783          	lw	a5,-20(s0)
    1020:	fc842703          	lw	a4,-56(s0)
    1024:	00f707b3          	add	a5,a4,a5
    1028:	00078023          	sb	zero,0(a5)
    102c:	fec42783          	lw	a5,-20(s0)
    1030:	fef42023          	sw	a5,-32(s0)
    1034:	fe042783          	lw	a5,-32(s0)
    1038:	fff78793          	addi	a5,a5,-1
    103c:	fef42423          	sw	a5,-24(s0)
    1040:	fe042623          	sw	zero,-20(s0)
    1044:	0c40006f          	j	1108 <itoa+0x1ac>
    1048:	fe842783          	lw	a5,-24(s0)
    104c:	fc842703          	lw	a4,-56(s0)
    1050:	00f707b3          	add	a5,a4,a5
    1054:	0007c683          	lbu	a3,0(a5)
    1058:	fec42783          	lw	a5,-20(s0)
    105c:	fc842703          	lw	a4,-56(s0)
    1060:	00f707b3          	add	a5,a4,a5
    1064:	0007c703          	lbu	a4,0(a5)
    1068:	fe842783          	lw	a5,-24(s0)
    106c:	fc842603          	lw	a2,-56(s0)
    1070:	00f607b3          	add	a5,a2,a5
    1074:	00e6c733          	xor	a4,a3,a4
    1078:	0ff77713          	andi	a4,a4,255
    107c:	00e78023          	sb	a4,0(a5)
    1080:	fec42783          	lw	a5,-20(s0)
    1084:	fc842703          	lw	a4,-56(s0)
    1088:	00f707b3          	add	a5,a4,a5
    108c:	0007c683          	lbu	a3,0(a5)
    1090:	fe842783          	lw	a5,-24(s0)
    1094:	fc842703          	lw	a4,-56(s0)
    1098:	00f707b3          	add	a5,a4,a5
    109c:	0007c703          	lbu	a4,0(a5)
    10a0:	fec42783          	lw	a5,-20(s0)
    10a4:	fc842603          	lw	a2,-56(s0)
    10a8:	00f607b3          	add	a5,a2,a5
    10ac:	00e6c733          	xor	a4,a3,a4
    10b0:	0ff77713          	andi	a4,a4,255
    10b4:	00e78023          	sb	a4,0(a5)
    10b8:	fe842783          	lw	a5,-24(s0)
    10bc:	fc842703          	lw	a4,-56(s0)
    10c0:	00f707b3          	add	a5,a4,a5
    10c4:	0007c683          	lbu	a3,0(a5)
    10c8:	fec42783          	lw	a5,-20(s0)
    10cc:	fc842703          	lw	a4,-56(s0)
    10d0:	00f707b3          	add	a5,a4,a5
    10d4:	0007c703          	lbu	a4,0(a5)
    10d8:	fe842783          	lw	a5,-24(s0)
    10dc:	fc842603          	lw	a2,-56(s0)
    10e0:	00f607b3          	add	a5,a2,a5
    10e4:	00e6c733          	xor	a4,a3,a4
    10e8:	0ff77713          	andi	a4,a4,255
    10ec:	00e78023          	sb	a4,0(a5)
    10f0:	fe842783          	lw	a5,-24(s0)
    10f4:	fff78793          	addi	a5,a5,-1
    10f8:	fef42423          	sw	a5,-24(s0)
    10fc:	fec42783          	lw	a5,-20(s0)
    1100:	00178793          	addi	a5,a5,1
    1104:	fef42623          	sw	a5,-20(s0)
    1108:	fe842703          	lw	a4,-24(s0)
    110c:	fec42783          	lw	a5,-20(s0)
    1110:	f2e7cce3          	blt	a5,a4,1048 <itoa+0xec>
    1114:	00000013          	nop
    1118:	00000013          	nop
    111c:	03c12083          	lw	ra,60(sp)
    1120:	03812403          	lw	s0,56(sp)
    1124:	04010113          	addi	sp,sp,64
    1128:	00008067          	ret

0000112c <atoi>:
    112c:	fd010113          	addi	sp,sp,-48
    1130:	02112623          	sw	ra,44(sp)
    1134:	02812423          	sw	s0,40(sp)
    1138:	03010413          	addi	s0,sp,48
    113c:	fca42e23          	sw	a0,-36(s0)
    1140:	fe042623          	sw	zero,-20(s0)
    1144:	fdc42703          	lw	a4,-36(s0)
    1148:	fec42783          	lw	a5,-20(s0)
    114c:	00f707b3          	add	a5,a4,a5
    1150:	0007c703          	lbu	a4,0(a5)
    1154:	02d00793          	li	a5,45
    1158:	00f71663          	bne	a4,a5,1164 <atoi+0x38>
    115c:	fff00793          	li	a5,-1
    1160:	0080006f          	j	1168 <atoi+0x3c>
    1164:	00100793          	li	a5,1
    1168:	fef42223          	sw	a5,-28(s0)
    116c:	fdc42703          	lw	a4,-36(s0)
    1170:	fec42783          	lw	a5,-20(s0)
    1174:	00f707b3          	add	a5,a4,a5
    1178:	0007c703          	lbu	a4,0(a5)
    117c:	02b00793          	li	a5,43
    1180:	00f70e63          	beq	a4,a5,119c <atoi+0x70>
    1184:	fdc42703          	lw	a4,-36(s0)
    1188:	fec42783          	lw	a5,-20(s0)
    118c:	00f707b3          	add	a5,a4,a5
    1190:	0007c703          	lbu	a4,0(a5)
    1194:	02d00793          	li	a5,45
    1198:	00f71863          	bne	a4,a5,11a8 <atoi+0x7c>
    119c:	fec42783          	lw	a5,-20(s0)
    11a0:	00178793          	addi	a5,a5,1
    11a4:	fef42623          	sw	a5,-20(s0)
    11a8:	fe042423          	sw	zero,-24(s0)
    11ac:	03c0006f          	j	11e8 <atoi+0xbc>
    11b0:	00a00593          	li	a1,10
    11b4:	fe842503          	lw	a0,-24(s0)
    11b8:	078000ef          	jal	ra,1230 <__mulsi3>
    11bc:	00050693          	mv	a3,a0
    11c0:	fdc42703          	lw	a4,-36(s0)
    11c4:	fec42783          	lw	a5,-20(s0)
    11c8:	00f707b3          	add	a5,a4,a5
    11cc:	0007c783          	lbu	a5,0(a5)
    11d0:	00f687b3          	add	a5,a3,a5
    11d4:	fd078793          	addi	a5,a5,-48
    11d8:	fef42423          	sw	a5,-24(s0)
    11dc:	fec42783          	lw	a5,-20(s0)
    11e0:	00178793          	addi	a5,a5,1
    11e4:	fef42623          	sw	a5,-20(s0)
    11e8:	fdc42703          	lw	a4,-36(s0)
    11ec:	fec42783          	lw	a5,-20(s0)
    11f0:	00f707b3          	add	a5,a4,a5
    11f4:	0007c783          	lbu	a5,0(a5)
    11f8:	00078513          	mv	a0,a5
    11fc:	ad1ff0ef          	jal	ra,ccc <isdigit>
    1200:	00050793          	mv	a5,a0
    1204:	fa0796e3          	bnez	a5,11b0 <atoi+0x84>
    1208:	fe442783          	lw	a5,-28(s0)
    120c:	fe842583          	lw	a1,-24(s0)
    1210:	00078513          	mv	a0,a5
    1214:	01c000ef          	jal	ra,1230 <__mulsi3>
    1218:	00050793          	mv	a5,a0
    121c:	00078513          	mv	a0,a5
    1220:	02c12083          	lw	ra,44(sp)
    1224:	02812403          	lw	s0,40(sp)
    1228:	03010113          	addi	sp,sp,48
    122c:	00008067          	ret

00001230 <__mulsi3>:
    1230:	fd010113          	addi	sp,sp,-48
    1234:	02812623          	sw	s0,44(sp)
    1238:	03010413          	addi	s0,sp,48
    123c:	fca42e23          	sw	a0,-36(s0)
    1240:	fcb42c23          	sw	a1,-40(s0)
    1244:	fe042623          	sw	zero,-20(s0)
    1248:	0380006f          	j	1280 <__mulsi3+0x50>
    124c:	fd842783          	lw	a5,-40(s0)
    1250:	0017f793          	andi	a5,a5,1
    1254:	00078a63          	beqz	a5,1268 <__mulsi3+0x38>
    1258:	fec42703          	lw	a4,-20(s0)
    125c:	fdc42783          	lw	a5,-36(s0)
    1260:	00f707b3          	add	a5,a4,a5
    1264:	fef42623          	sw	a5,-20(s0)
    1268:	fdc42783          	lw	a5,-36(s0)
    126c:	00179793          	slli	a5,a5,0x1
    1270:	fcf42e23          	sw	a5,-36(s0)
    1274:	fd842783          	lw	a5,-40(s0)
    1278:	0017d793          	srli	a5,a5,0x1
    127c:	fcf42c23          	sw	a5,-40(s0)
    1280:	fd842783          	lw	a5,-40(s0)
    1284:	fc0794e3          	bnez	a5,124c <__mulsi3+0x1c>
    1288:	fec42783          	lw	a5,-20(s0)
    128c:	00078513          	mv	a0,a5
    1290:	02c12403          	lw	s0,44(sp)
    1294:	03010113          	addi	sp,sp,48
    1298:	00008067          	ret

0000129c <_udiv_mod>:
    129c:	fd010113          	addi	sp,sp,-48
    12a0:	02812623          	sw	s0,44(sp)
    12a4:	03010413          	addi	s0,sp,48
    12a8:	fca42e23          	sw	a0,-36(s0)
    12ac:	fcb42c23          	sw	a1,-40(s0)
    12b0:	fcc42a23          	sw	a2,-44(s0)
    12b4:	fcd42823          	sw	a3,-48(s0)
    12b8:	00100793          	li	a5,1
    12bc:	fef42623          	sw	a5,-20(s0)
    12c0:	fe042423          	sw	zero,-24(s0)
    12c4:	01c0006f          	j	12e0 <_udiv_mod+0x44>
    12c8:	fd842783          	lw	a5,-40(s0)
    12cc:	00179793          	slli	a5,a5,0x1
    12d0:	fcf42c23          	sw	a5,-40(s0)
    12d4:	fec42783          	lw	a5,-20(s0)
    12d8:	00179793          	slli	a5,a5,0x1
    12dc:	fef42623          	sw	a5,-20(s0)
    12e0:	fd842703          	lw	a4,-40(s0)
    12e4:	fdc42783          	lw	a5,-36(s0)
    12e8:	04f77e63          	bgeu	a4,a5,1344 <_udiv_mod+0xa8>
    12ec:	fec42783          	lw	a5,-20(s0)
    12f0:	04078a63          	beqz	a5,1344 <_udiv_mod+0xa8>
    12f4:	fd842783          	lw	a5,-40(s0)
    12f8:	fc07d8e3          	bgez	a5,12c8 <_udiv_mod+0x2c>
    12fc:	0480006f          	j	1344 <_udiv_mod+0xa8>
    1300:	fdc42703          	lw	a4,-36(s0)
    1304:	fd842783          	lw	a5,-40(s0)
    1308:	02f76263          	bltu	a4,a5,132c <_udiv_mod+0x90>
    130c:	fdc42703          	lw	a4,-36(s0)
    1310:	fd842783          	lw	a5,-40(s0)
    1314:	40f707b3          	sub	a5,a4,a5
    1318:	fcf42e23          	sw	a5,-36(s0)
    131c:	fe842703          	lw	a4,-24(s0)
    1320:	fec42783          	lw	a5,-20(s0)
    1324:	00f767b3          	or	a5,a4,a5
    1328:	fef42423          	sw	a5,-24(s0)
    132c:	fd842783          	lw	a5,-40(s0)
    1330:	0017d793          	srli	a5,a5,0x1
    1334:	fcf42c23          	sw	a5,-40(s0)
    1338:	fec42783          	lw	a5,-20(s0)
    133c:	0017d793          	srli	a5,a5,0x1
    1340:	fef42623          	sw	a5,-20(s0)
    1344:	fec42783          	lw	a5,-20(s0)
    1348:	fa079ce3          	bnez	a5,1300 <_udiv_mod+0x64>
    134c:	fd442783          	lw	a5,-44(s0)
    1350:	00078863          	beqz	a5,1360 <_udiv_mod+0xc4>
    1354:	fd442783          	lw	a5,-44(s0)
    1358:	fe842703          	lw	a4,-24(s0)
    135c:	00e7a023          	sw	a4,0(a5)
    1360:	fd042783          	lw	a5,-48(s0)
    1364:	00078863          	beqz	a5,1374 <_udiv_mod+0xd8>
    1368:	fd042783          	lw	a5,-48(s0)
    136c:	fdc42703          	lw	a4,-36(s0)
    1370:	00e7a023          	sw	a4,0(a5)
    1374:	00000013          	nop
    1378:	02c12403          	lw	s0,44(sp)
    137c:	03010113          	addi	sp,sp,48
    1380:	00008067          	ret

00001384 <__udivsi3>:
    1384:	fd010113          	addi	sp,sp,-48
    1388:	02112623          	sw	ra,44(sp)
    138c:	02812423          	sw	s0,40(sp)
    1390:	03010413          	addi	s0,sp,48
    1394:	fca42e23          	sw	a0,-36(s0)
    1398:	fcb42c23          	sw	a1,-40(s0)
    139c:	fec40793          	addi	a5,s0,-20
    13a0:	00000693          	li	a3,0
    13a4:	00078613          	mv	a2,a5
    13a8:	fd842583          	lw	a1,-40(s0)
    13ac:	fdc42503          	lw	a0,-36(s0)
    13b0:	eedff0ef          	jal	ra,129c <_udiv_mod>
    13b4:	fec42783          	lw	a5,-20(s0)
    13b8:	00078513          	mv	a0,a5
    13bc:	02c12083          	lw	ra,44(sp)
    13c0:	02812403          	lw	s0,40(sp)
    13c4:	03010113          	addi	sp,sp,48
    13c8:	00008067          	ret

000013cc <tok_is_digit>:
    13cc:	fd010113          	addi	sp,sp,-48
    13d0:	02812623          	sw	s0,44(sp)
    13d4:	03010413          	addi	s0,sp,48
    13d8:	fca42e23          	sw	a0,-36(s0)
    13dc:	00100793          	li	a5,1
    13e0:	fef407a3          	sb	a5,-17(s0)
    13e4:	03c0006f          	j	1420 <tok_is_digit+0x54>
    13e8:	fdc42783          	lw	a5,-36(s0)
    13ec:	0007c703          	lbu	a4,0(a5)
    13f0:	02f00793          	li	a5,47
    13f4:	02e7f263          	bgeu	a5,a4,1418 <tok_is_digit+0x4c>
    13f8:	fdc42783          	lw	a5,-36(s0)
    13fc:	0007c703          	lbu	a4,0(a5)
    1400:	03900793          	li	a5,57
    1404:	00e7ea63          	bltu	a5,a4,1418 <tok_is_digit+0x4c>
    1408:	fdc42783          	lw	a5,-36(s0)
    140c:	00178793          	addi	a5,a5,1
    1410:	fcf42e23          	sw	a5,-36(s0)
    1414:	00c0006f          	j	1420 <tok_is_digit+0x54>
    1418:	fe0407a3          	sb	zero,-17(s0)
    141c:	0100006f          	j	142c <tok_is_digit+0x60>
    1420:	fdc42783          	lw	a5,-36(s0)
    1424:	0007c783          	lbu	a5,0(a5)
    1428:	fc0790e3          	bnez	a5,13e8 <tok_is_digit+0x1c>
    142c:	fef44783          	lbu	a5,-17(s0)
    1430:	00078513          	mv	a0,a5
    1434:	02c12403          	lw	s0,44(sp)
    1438:	03010113          	addi	sp,sp,48
    143c:	00008067          	ret

00001440 <make_token>:
    1440:	fd010113          	addi	sp,sp,-48
    1444:	02112623          	sw	ra,44(sp)
    1448:	02812423          	sw	s0,40(sp)
    144c:	02912223          	sw	s1,36(sp)
    1450:	03010413          	addi	s0,sp,48
    1454:	fca42e23          	sw	a0,-36(s0)
    1458:	000ff797          	auipc	a5,0xff
    145c:	f6878793          	addi	a5,a5,-152 # 1003c0 <nr_token>
    1460:	0007a023          	sw	zero,0(a5)
    1464:	000ff597          	auipc	a1,0xff
    1468:	c5858593          	addi	a1,a1,-936 # 1000bc <_etext+0xfda90>
    146c:	fdc42503          	lw	a0,-36(s0)
    1470:	945ff0ef          	jal	ra,db4 <strtok>
    1474:	00050793          	mv	a5,a0
    1478:	fef42623          	sw	a5,-20(s0)
    147c:	6340006f          	j	1ab0 <make_token+0x670>
    1480:	000ff597          	auipc	a1,0xff
    1484:	c4058593          	addi	a1,a1,-960 # 1000c0 <_etext+0xfda94>
    1488:	fec42503          	lw	a0,-20(s0)
    148c:	88dff0ef          	jal	ra,d18 <strcmp>
    1490:	00050793          	mv	a5,a0
    1494:	02079c63          	bnez	a5,14cc <make_token+0x8c>
    1498:	000ff797          	auipc	a5,0xff
    149c:	f2878793          	addi	a5,a5,-216 # 1003c0 <nr_token>
    14a0:	0007a783          	lw	a5,0(a5)
    14a4:	00178693          	addi	a3,a5,1
    14a8:	000ff717          	auipc	a4,0xff
    14ac:	f1870713          	addi	a4,a4,-232 # 1003c0 <nr_token>
    14b0:	00d72023          	sw	a3,0(a4)
    14b4:	000ff717          	auipc	a4,0xff
    14b8:	dec70713          	addi	a4,a4,-532 # 1002a0 <tokens>
    14bc:	00379793          	slli	a5,a5,0x3
    14c0:	00f707b3          	add	a5,a4,a5
    14c4:	0007a023          	sw	zero,0(a5)
    14c8:	5d00006f          	j	1a98 <make_token+0x658>
    14cc:	000ff597          	auipc	a1,0xff
    14d0:	bf858593          	addi	a1,a1,-1032 # 1000c4 <_etext+0xfda98>
    14d4:	fec42503          	lw	a0,-20(s0)
    14d8:	841ff0ef          	jal	ra,d18 <strcmp>
    14dc:	00050793          	mv	a5,a0
    14e0:	02079e63          	bnez	a5,151c <make_token+0xdc>
    14e4:	000ff797          	auipc	a5,0xff
    14e8:	edc78793          	addi	a5,a5,-292 # 1003c0 <nr_token>
    14ec:	0007a783          	lw	a5,0(a5)
    14f0:	00178693          	addi	a3,a5,1
    14f4:	000ff717          	auipc	a4,0xff
    14f8:	ecc70713          	addi	a4,a4,-308 # 1003c0 <nr_token>
    14fc:	00d72023          	sw	a3,0(a4)
    1500:	000ff717          	auipc	a4,0xff
    1504:	da070713          	addi	a4,a4,-608 # 1002a0 <tokens>
    1508:	00379793          	slli	a5,a5,0x3
    150c:	00f707b3          	add	a5,a4,a5
    1510:	00100713          	li	a4,1
    1514:	00e7a023          	sw	a4,0(a5)
    1518:	5800006f          	j	1a98 <make_token+0x658>
    151c:	fec42503          	lw	a0,-20(s0)
    1520:	eadff0ef          	jal	ra,13cc <tok_is_digit>
    1524:	00050793          	mv	a5,a0
    1528:	06078463          	beqz	a5,1590 <make_token+0x150>
    152c:	000ff797          	auipc	a5,0xff
    1530:	e9478793          	addi	a5,a5,-364 # 1003c0 <nr_token>
    1534:	0007a783          	lw	a5,0(a5)
    1538:	000ff717          	auipc	a4,0xff
    153c:	d6870713          	addi	a4,a4,-664 # 1002a0 <tokens>
    1540:	00379793          	slli	a5,a5,0x3
    1544:	00f707b3          	add	a5,a4,a5
    1548:	00200713          	li	a4,2
    154c:	00e7a023          	sw	a4,0(a5)
    1550:	000ff797          	auipc	a5,0xff
    1554:	e7078793          	addi	a5,a5,-400 # 1003c0 <nr_token>
    1558:	0007a483          	lw	s1,0(a5)
    155c:	00148713          	addi	a4,s1,1
    1560:	000ff797          	auipc	a5,0xff
    1564:	e6078793          	addi	a5,a5,-416 # 1003c0 <nr_token>
    1568:	00e7a023          	sw	a4,0(a5)
    156c:	fec42503          	lw	a0,-20(s0)
    1570:	bbdff0ef          	jal	ra,112c <atoi>
    1574:	00050693          	mv	a3,a0
    1578:	000ff717          	auipc	a4,0xff
    157c:	d2870713          	addi	a4,a4,-728 # 1002a0 <tokens>
    1580:	00349793          	slli	a5,s1,0x3
    1584:	00f707b3          	add	a5,a4,a5
    1588:	00d7a223          	sw	a3,4(a5)
    158c:	50c0006f          	j	1a98 <make_token+0x658>
    1590:	000ff597          	auipc	a1,0xff
    1594:	b3858593          	addi	a1,a1,-1224 # 1000c8 <_etext+0xfda9c>
    1598:	fec42503          	lw	a0,-20(s0)
    159c:	f7cff0ef          	jal	ra,d18 <strcmp>
    15a0:	00050793          	mv	a5,a0
    15a4:	02079e63          	bnez	a5,15e0 <make_token+0x1a0>
    15a8:	000ff797          	auipc	a5,0xff
    15ac:	e1878793          	addi	a5,a5,-488 # 1003c0 <nr_token>
    15b0:	0007a783          	lw	a5,0(a5)
    15b4:	00178693          	addi	a3,a5,1
    15b8:	000ff717          	auipc	a4,0xff
    15bc:	e0870713          	addi	a4,a4,-504 # 1003c0 <nr_token>
    15c0:	00d72023          	sw	a3,0(a4)
    15c4:	000ff717          	auipc	a4,0xff
    15c8:	cdc70713          	addi	a4,a4,-804 # 1002a0 <tokens>
    15cc:	00379793          	slli	a5,a5,0x3
    15d0:	00f707b3          	add	a5,a4,a5
    15d4:	02b00713          	li	a4,43
    15d8:	00e7a023          	sw	a4,0(a5)
    15dc:	4bc0006f          	j	1a98 <make_token+0x658>
    15e0:	000ff597          	auipc	a1,0xff
    15e4:	aec58593          	addi	a1,a1,-1300 # 1000cc <_etext+0xfdaa0>
    15e8:	fec42503          	lw	a0,-20(s0)
    15ec:	f2cff0ef          	jal	ra,d18 <strcmp>
    15f0:	00050793          	mv	a5,a0
    15f4:	02079e63          	bnez	a5,1630 <make_token+0x1f0>
    15f8:	000ff797          	auipc	a5,0xff
    15fc:	dc878793          	addi	a5,a5,-568 # 1003c0 <nr_token>
    1600:	0007a783          	lw	a5,0(a5)
    1604:	00178693          	addi	a3,a5,1
    1608:	000ff717          	auipc	a4,0xff
    160c:	db870713          	addi	a4,a4,-584 # 1003c0 <nr_token>
    1610:	00d72023          	sw	a3,0(a4)
    1614:	000ff717          	auipc	a4,0xff
    1618:	c8c70713          	addi	a4,a4,-884 # 1002a0 <tokens>
    161c:	00379793          	slli	a5,a5,0x3
    1620:	00f707b3          	add	a5,a4,a5
    1624:	02d00713          	li	a4,45
    1628:	00e7a023          	sw	a4,0(a5)
    162c:	46c0006f          	j	1a98 <make_token+0x658>
    1630:	000ff597          	auipc	a1,0xff
    1634:	aa058593          	addi	a1,a1,-1376 # 1000d0 <_etext+0xfdaa4>
    1638:	fec42503          	lw	a0,-20(s0)
    163c:	edcff0ef          	jal	ra,d18 <strcmp>
    1640:	00050793          	mv	a5,a0
    1644:	02079e63          	bnez	a5,1680 <make_token+0x240>
    1648:	000ff797          	auipc	a5,0xff
    164c:	d7878793          	addi	a5,a5,-648 # 1003c0 <nr_token>
    1650:	0007a783          	lw	a5,0(a5)
    1654:	00178693          	addi	a3,a5,1
    1658:	000ff717          	auipc	a4,0xff
    165c:	d6870713          	addi	a4,a4,-664 # 1003c0 <nr_token>
    1660:	00d72023          	sw	a3,0(a4)
    1664:	000ff717          	auipc	a4,0xff
    1668:	c3c70713          	addi	a4,a4,-964 # 1002a0 <tokens>
    166c:	00379793          	slli	a5,a5,0x3
    1670:	00f707b3          	add	a5,a4,a5
    1674:	02a00713          	li	a4,42
    1678:	00e7a023          	sw	a4,0(a5)
    167c:	41c0006f          	j	1a98 <make_token+0x658>
    1680:	000ff597          	auipc	a1,0xff
    1684:	a5458593          	addi	a1,a1,-1452 # 1000d4 <_etext+0xfdaa8>
    1688:	fec42503          	lw	a0,-20(s0)
    168c:	e8cff0ef          	jal	ra,d18 <strcmp>
    1690:	00050793          	mv	a5,a0
    1694:	02079e63          	bnez	a5,16d0 <make_token+0x290>
    1698:	000ff797          	auipc	a5,0xff
    169c:	d2878793          	addi	a5,a5,-728 # 1003c0 <nr_token>
    16a0:	0007a783          	lw	a5,0(a5)
    16a4:	00178693          	addi	a3,a5,1
    16a8:	000ff717          	auipc	a4,0xff
    16ac:	d1870713          	addi	a4,a4,-744 # 1003c0 <nr_token>
    16b0:	00d72023          	sw	a3,0(a4)
    16b4:	000ff717          	auipc	a4,0xff
    16b8:	bec70713          	addi	a4,a4,-1044 # 1002a0 <tokens>
    16bc:	00379793          	slli	a5,a5,0x3
    16c0:	00f707b3          	add	a5,a4,a5
    16c4:	02f00713          	li	a4,47
    16c8:	00e7a023          	sw	a4,0(a5)
    16cc:	3cc0006f          	j	1a98 <make_token+0x658>
    16d0:	000ff597          	auipc	a1,0xff
    16d4:	a0858593          	addi	a1,a1,-1528 # 1000d8 <_etext+0xfdaac>
    16d8:	fec42503          	lw	a0,-20(s0)
    16dc:	e3cff0ef          	jal	ra,d18 <strcmp>
    16e0:	00050793          	mv	a5,a0
    16e4:	02079e63          	bnez	a5,1720 <make_token+0x2e0>
    16e8:	000ff797          	auipc	a5,0xff
    16ec:	cd878793          	addi	a5,a5,-808 # 1003c0 <nr_token>
    16f0:	0007a783          	lw	a5,0(a5)
    16f4:	00178693          	addi	a3,a5,1
    16f8:	000ff717          	auipc	a4,0xff
    16fc:	cc870713          	addi	a4,a4,-824 # 1003c0 <nr_token>
    1700:	00d72023          	sw	a3,0(a4)
    1704:	000ff717          	auipc	a4,0xff
    1708:	b9c70713          	addi	a4,a4,-1124 # 1002a0 <tokens>
    170c:	00379793          	slli	a5,a5,0x3
    1710:	00f707b3          	add	a5,a4,a5
    1714:	02800713          	li	a4,40
    1718:	00e7a023          	sw	a4,0(a5)
    171c:	37c0006f          	j	1a98 <make_token+0x658>
    1720:	000ff597          	auipc	a1,0xff
    1724:	9bc58593          	addi	a1,a1,-1604 # 1000dc <_etext+0xfdab0>
    1728:	fec42503          	lw	a0,-20(s0)
    172c:	decff0ef          	jal	ra,d18 <strcmp>
    1730:	00050793          	mv	a5,a0
    1734:	02079e63          	bnez	a5,1770 <make_token+0x330>
    1738:	000ff797          	auipc	a5,0xff
    173c:	c8878793          	addi	a5,a5,-888 # 1003c0 <nr_token>
    1740:	0007a783          	lw	a5,0(a5)
    1744:	00178693          	addi	a3,a5,1
    1748:	000ff717          	auipc	a4,0xff
    174c:	c7870713          	addi	a4,a4,-904 # 1003c0 <nr_token>
    1750:	00d72023          	sw	a3,0(a4)
    1754:	000ff717          	auipc	a4,0xff
    1758:	b4c70713          	addi	a4,a4,-1204 # 1002a0 <tokens>
    175c:	00379793          	slli	a5,a5,0x3
    1760:	00f707b3          	add	a5,a4,a5
    1764:	02900713          	li	a4,41
    1768:	00e7a023          	sw	a4,0(a5)
    176c:	32c0006f          	j	1a98 <make_token+0x658>
    1770:	000ff597          	auipc	a1,0xff
    1774:	97058593          	addi	a1,a1,-1680 # 1000e0 <_etext+0xfdab4>
    1778:	fec42503          	lw	a0,-20(s0)
    177c:	d9cff0ef          	jal	ra,d18 <strcmp>
    1780:	00050793          	mv	a5,a0
    1784:	02079e63          	bnez	a5,17c0 <make_token+0x380>
    1788:	000ff797          	auipc	a5,0xff
    178c:	c3878793          	addi	a5,a5,-968 # 1003c0 <nr_token>
    1790:	0007a783          	lw	a5,0(a5)
    1794:	00178693          	addi	a3,a5,1
    1798:	000ff717          	auipc	a4,0xff
    179c:	c2870713          	addi	a4,a4,-984 # 1003c0 <nr_token>
    17a0:	00d72023          	sw	a3,0(a4)
    17a4:	000ff717          	auipc	a4,0xff
    17a8:	afc70713          	addi	a4,a4,-1284 # 1002a0 <tokens>
    17ac:	00379793          	slli	a5,a5,0x3
    17b0:	00f707b3          	add	a5,a4,a5
    17b4:	00500713          	li	a4,5
    17b8:	00e7a023          	sw	a4,0(a5)
    17bc:	2dc0006f          	j	1a98 <make_token+0x658>
    17c0:	000ff597          	auipc	a1,0xff
    17c4:	92458593          	addi	a1,a1,-1756 # 1000e4 <_etext+0xfdab8>
    17c8:	fec42503          	lw	a0,-20(s0)
    17cc:	d4cff0ef          	jal	ra,d18 <strcmp>
    17d0:	00050793          	mv	a5,a0
    17d4:	02079e63          	bnez	a5,1810 <make_token+0x3d0>
    17d8:	000ff797          	auipc	a5,0xff
    17dc:	be878793          	addi	a5,a5,-1048 # 1003c0 <nr_token>
    17e0:	0007a783          	lw	a5,0(a5)
    17e4:	00178693          	addi	a3,a5,1
    17e8:	000ff717          	auipc	a4,0xff
    17ec:	bd870713          	addi	a4,a4,-1064 # 1003c0 <nr_token>
    17f0:	00d72023          	sw	a3,0(a4)
    17f4:	000ff717          	auipc	a4,0xff
    17f8:	aac70713          	addi	a4,a4,-1364 # 1002a0 <tokens>
    17fc:	00379793          	slli	a5,a5,0x3
    1800:	00f707b3          	add	a5,a4,a5
    1804:	00600713          	li	a4,6
    1808:	00e7a023          	sw	a4,0(a5)
    180c:	28c0006f          	j	1a98 <make_token+0x658>
    1810:	000ff597          	auipc	a1,0xff
    1814:	8d858593          	addi	a1,a1,-1832 # 1000e8 <_etext+0xfdabc>
    1818:	fec42503          	lw	a0,-20(s0)
    181c:	cfcff0ef          	jal	ra,d18 <strcmp>
    1820:	00050793          	mv	a5,a0
    1824:	02079e63          	bnez	a5,1860 <make_token+0x420>
    1828:	000ff797          	auipc	a5,0xff
    182c:	b9878793          	addi	a5,a5,-1128 # 1003c0 <nr_token>
    1830:	0007a783          	lw	a5,0(a5)
    1834:	00178693          	addi	a3,a5,1
    1838:	000ff717          	auipc	a4,0xff
    183c:	b8870713          	addi	a4,a4,-1144 # 1003c0 <nr_token>
    1840:	00d72023          	sw	a3,0(a4)
    1844:	000ff717          	auipc	a4,0xff
    1848:	a5c70713          	addi	a4,a4,-1444 # 1002a0 <tokens>
    184c:	00379793          	slli	a5,a5,0x3
    1850:	00f707b3          	add	a5,a4,a5
    1854:	00700713          	li	a4,7
    1858:	00e7a023          	sw	a4,0(a5)
    185c:	23c0006f          	j	1a98 <make_token+0x658>
    1860:	000ff597          	auipc	a1,0xff
    1864:	88c58593          	addi	a1,a1,-1908 # 1000ec <_etext+0xfdac0>
    1868:	fec42503          	lw	a0,-20(s0)
    186c:	cacff0ef          	jal	ra,d18 <strcmp>
    1870:	00050793          	mv	a5,a0
    1874:	02079e63          	bnez	a5,18b0 <make_token+0x470>
    1878:	000ff797          	auipc	a5,0xff
    187c:	b4878793          	addi	a5,a5,-1208 # 1003c0 <nr_token>
    1880:	0007a783          	lw	a5,0(a5)
    1884:	00178693          	addi	a3,a5,1
    1888:	000ff717          	auipc	a4,0xff
    188c:	b3870713          	addi	a4,a4,-1224 # 1003c0 <nr_token>
    1890:	00d72023          	sw	a3,0(a4)
    1894:	000ff717          	auipc	a4,0xff
    1898:	a0c70713          	addi	a4,a4,-1524 # 1002a0 <tokens>
    189c:	00379793          	slli	a5,a5,0x3
    18a0:	00f707b3          	add	a5,a4,a5
    18a4:	00800713          	li	a4,8
    18a8:	00e7a023          	sw	a4,0(a5)
    18ac:	1ec0006f          	j	1a98 <make_token+0x658>
    18b0:	000ff597          	auipc	a1,0xff
    18b4:	84058593          	addi	a1,a1,-1984 # 1000f0 <_etext+0xfdac4>
    18b8:	fec42503          	lw	a0,-20(s0)
    18bc:	c5cff0ef          	jal	ra,d18 <strcmp>
    18c0:	00050793          	mv	a5,a0
    18c4:	02079e63          	bnez	a5,1900 <make_token+0x4c0>
    18c8:	000ff797          	auipc	a5,0xff
    18cc:	af878793          	addi	a5,a5,-1288 # 1003c0 <nr_token>
    18d0:	0007a783          	lw	a5,0(a5)
    18d4:	00178693          	addi	a3,a5,1
    18d8:	000ff717          	auipc	a4,0xff
    18dc:	ae870713          	addi	a4,a4,-1304 # 1003c0 <nr_token>
    18e0:	00d72023          	sw	a3,0(a4)
    18e4:	000ff717          	auipc	a4,0xff
    18e8:	9bc70713          	addi	a4,a4,-1604 # 1002a0 <tokens>
    18ec:	00379793          	slli	a5,a5,0x3
    18f0:	00f707b3          	add	a5,a4,a5
    18f4:	00900713          	li	a4,9
    18f8:	00e7a023          	sw	a4,0(a5)
    18fc:	19c0006f          	j	1a98 <make_token+0x658>
    1900:	000fe597          	auipc	a1,0xfe
    1904:	7f458593          	addi	a1,a1,2036 # 1000f4 <_etext+0xfdac8>
    1908:	fec42503          	lw	a0,-20(s0)
    190c:	c0cff0ef          	jal	ra,d18 <strcmp>
    1910:	00050793          	mv	a5,a0
    1914:	02079e63          	bnez	a5,1950 <make_token+0x510>
    1918:	000ff797          	auipc	a5,0xff
    191c:	aa878793          	addi	a5,a5,-1368 # 1003c0 <nr_token>
    1920:	0007a783          	lw	a5,0(a5)
    1924:	00178693          	addi	a3,a5,1
    1928:	000ff717          	auipc	a4,0xff
    192c:	a9870713          	addi	a4,a4,-1384 # 1003c0 <nr_token>
    1930:	00d72023          	sw	a3,0(a4)
    1934:	000ff717          	auipc	a4,0xff
    1938:	96c70713          	addi	a4,a4,-1684 # 1002a0 <tokens>
    193c:	00379793          	slli	a5,a5,0x3
    1940:	00f707b3          	add	a5,a4,a5
    1944:	00a00713          	li	a4,10
    1948:	00e7a023          	sw	a4,0(a5)
    194c:	14c0006f          	j	1a98 <make_token+0x658>
    1950:	000fe597          	auipc	a1,0xfe
    1954:	7a858593          	addi	a1,a1,1960 # 1000f8 <_etext+0xfdacc>
    1958:	fec42503          	lw	a0,-20(s0)
    195c:	bbcff0ef          	jal	ra,d18 <strcmp>
    1960:	00050793          	mv	a5,a0
    1964:	02079e63          	bnez	a5,19a0 <make_token+0x560>
    1968:	000ff797          	auipc	a5,0xff
    196c:	a5878793          	addi	a5,a5,-1448 # 1003c0 <nr_token>
    1970:	0007a783          	lw	a5,0(a5)
    1974:	00178693          	addi	a3,a5,1
    1978:	000ff717          	auipc	a4,0xff
    197c:	a4870713          	addi	a4,a4,-1464 # 1003c0 <nr_token>
    1980:	00d72023          	sw	a3,0(a4)
    1984:	000ff717          	auipc	a4,0xff
    1988:	91c70713          	addi	a4,a4,-1764 # 1002a0 <tokens>
    198c:	00379793          	slli	a5,a5,0x3
    1990:	00f707b3          	add	a5,a4,a5
    1994:	00b00713          	li	a4,11
    1998:	00e7a023          	sw	a4,0(a5)
    199c:	0fc0006f          	j	1a98 <make_token+0x658>
    19a0:	000fe597          	auipc	a1,0xfe
    19a4:	75c58593          	addi	a1,a1,1884 # 1000fc <_etext+0xfdad0>
    19a8:	fec42503          	lw	a0,-20(s0)
    19ac:	b6cff0ef          	jal	ra,d18 <strcmp>
    19b0:	00050793          	mv	a5,a0
    19b4:	02079e63          	bnez	a5,19f0 <make_token+0x5b0>
    19b8:	000ff797          	auipc	a5,0xff
    19bc:	a0878793          	addi	a5,a5,-1528 # 1003c0 <nr_token>
    19c0:	0007a783          	lw	a5,0(a5)
    19c4:	00178693          	addi	a3,a5,1
    19c8:	000ff717          	auipc	a4,0xff
    19cc:	9f870713          	addi	a4,a4,-1544 # 1003c0 <nr_token>
    19d0:	00d72023          	sw	a3,0(a4)
    19d4:	000ff717          	auipc	a4,0xff
    19d8:	8cc70713          	addi	a4,a4,-1844 # 1002a0 <tokens>
    19dc:	00379793          	slli	a5,a5,0x3
    19e0:	00f707b3          	add	a5,a4,a5
    19e4:	00c00713          	li	a4,12
    19e8:	00e7a023          	sw	a4,0(a5)
    19ec:	0ac0006f          	j	1a98 <make_token+0x658>
    19f0:	000fe597          	auipc	a1,0xfe
    19f4:	71058593          	addi	a1,a1,1808 # 100100 <_etext+0xfdad4>
    19f8:	fec42503          	lw	a0,-20(s0)
    19fc:	b1cff0ef          	jal	ra,d18 <strcmp>
    1a00:	00050793          	mv	a5,a0
    1a04:	02079e63          	bnez	a5,1a40 <make_token+0x600>
    1a08:	000ff797          	auipc	a5,0xff
    1a0c:	9b878793          	addi	a5,a5,-1608 # 1003c0 <nr_token>
    1a10:	0007a783          	lw	a5,0(a5)
    1a14:	00178693          	addi	a3,a5,1
    1a18:	000ff717          	auipc	a4,0xff
    1a1c:	9a870713          	addi	a4,a4,-1624 # 1003c0 <nr_token>
    1a20:	00d72023          	sw	a3,0(a4)
    1a24:	000ff717          	auipc	a4,0xff
    1a28:	87c70713          	addi	a4,a4,-1924 # 1002a0 <tokens>
    1a2c:	00379793          	slli	a5,a5,0x3
    1a30:	00f707b3          	add	a5,a4,a5
    1a34:	00d00713          	li	a4,13
    1a38:	00e7a023          	sw	a4,0(a5)
    1a3c:	05c0006f          	j	1a98 <make_token+0x658>
    1a40:	000fe597          	auipc	a1,0xfe
    1a44:	6c458593          	addi	a1,a1,1732 # 100104 <_etext+0xfdad8>
    1a48:	fec42503          	lw	a0,-20(s0)
    1a4c:	accff0ef          	jal	ra,d18 <strcmp>
    1a50:	00050793          	mv	a5,a0
    1a54:	02079e63          	bnez	a5,1a90 <make_token+0x650>
    1a58:	000ff797          	auipc	a5,0xff
    1a5c:	96878793          	addi	a5,a5,-1688 # 1003c0 <nr_token>
    1a60:	0007a783          	lw	a5,0(a5)
    1a64:	00178693          	addi	a3,a5,1
    1a68:	000ff717          	auipc	a4,0xff
    1a6c:	95870713          	addi	a4,a4,-1704 # 1003c0 <nr_token>
    1a70:	00d72023          	sw	a3,0(a4)
    1a74:	000ff717          	auipc	a4,0xff
    1a78:	82c70713          	addi	a4,a4,-2004 # 1002a0 <tokens>
    1a7c:	00379793          	slli	a5,a5,0x3
    1a80:	00f707b3          	add	a5,a4,a5
    1a84:	00e00713          	li	a4,14
    1a88:	00e7a023          	sw	a4,0(a5)
    1a8c:	00c0006f          	j	1a98 <make_token+0x658>
    1a90:	00000793          	li	a5,0
    1a94:	0280006f          	j	1abc <make_token+0x67c>
    1a98:	000fe597          	auipc	a1,0xfe
    1a9c:	62458593          	addi	a1,a1,1572 # 1000bc <_etext+0xfda90>
    1aa0:	00000513          	li	a0,0
    1aa4:	b10ff0ef          	jal	ra,db4 <strtok>
    1aa8:	00050793          	mv	a5,a0
    1aac:	fef42623          	sw	a5,-20(s0)
    1ab0:	fec42783          	lw	a5,-20(s0)
    1ab4:	9c0796e3          	bnez	a5,1480 <make_token+0x40>
    1ab8:	00100793          	li	a5,1
    1abc:	00078513          	mv	a0,a5
    1ac0:	02c12083          	lw	ra,44(sp)
    1ac4:	02812403          	lw	s0,40(sp)
    1ac8:	02412483          	lw	s1,36(sp)
    1acc:	03010113          	addi	sp,sp,48
    1ad0:	00008067          	ret

00001ad4 <is_unary>:
    1ad4:	fe010113          	addi	sp,sp,-32
    1ad8:	00812e23          	sw	s0,28(sp)
    1adc:	02010413          	addi	s0,sp,32
    1ae0:	fea42623          	sw	a0,-20(s0)
    1ae4:	000fe717          	auipc	a4,0xfe
    1ae8:	7bc70713          	addi	a4,a4,1980 # 1002a0 <tokens>
    1aec:	fec42783          	lw	a5,-20(s0)
    1af0:	00379793          	slli	a5,a5,0x3
    1af4:	00f707b3          	add	a5,a4,a5
    1af8:	0007a703          	lw	a4,0(a5)
    1afc:	00300793          	li	a5,3
    1b00:	04f70263          	beq	a4,a5,1b44 <is_unary+0x70>
    1b04:	000fe717          	auipc	a4,0xfe
    1b08:	79c70713          	addi	a4,a4,1948 # 1002a0 <tokens>
    1b0c:	fec42783          	lw	a5,-20(s0)
    1b10:	00379793          	slli	a5,a5,0x3
    1b14:	00f707b3          	add	a5,a4,a5
    1b18:	0007a703          	lw	a4,0(a5)
    1b1c:	00400793          	li	a5,4
    1b20:	02f70263          	beq	a4,a5,1b44 <is_unary+0x70>
    1b24:	000fe717          	auipc	a4,0xfe
    1b28:	77c70713          	addi	a4,a4,1916 # 1002a0 <tokens>
    1b2c:	fec42783          	lw	a5,-20(s0)
    1b30:	00379793          	slli	a5,a5,0x3
    1b34:	00f707b3          	add	a5,a4,a5
    1b38:	0007a703          	lw	a4,0(a5)
    1b3c:	00b00793          	li	a5,11
    1b40:	00f71663          	bne	a4,a5,1b4c <is_unary+0x78>
    1b44:	00100793          	li	a5,1
    1b48:	0080006f          	j	1b50 <is_unary+0x7c>
    1b4c:	00000793          	li	a5,0
    1b50:	0ff7f793          	andi	a5,a5,255
    1b54:	00078513          	mv	a0,a5
    1b58:	01c12403          	lw	s0,28(sp)
    1b5c:	02010113          	addi	sp,sp,32
    1b60:	00008067          	ret

00001b64 <pre_process>:
    1b64:	fe010113          	addi	sp,sp,-32
    1b68:	00812e23          	sw	s0,28(sp)
    1b6c:	02010413          	addi	s0,sp,32
    1b70:	00100793          	li	a5,1
    1b74:	fef407a3          	sb	a5,-17(s0)
    1b78:	fe042423          	sw	zero,-24(s0)
    1b7c:	1440006f          	j	1cc0 <pre_process+0x15c>
    1b80:	000fe717          	auipc	a4,0xfe
    1b84:	72070713          	addi	a4,a4,1824 # 1002a0 <tokens>
    1b88:	fe842783          	lw	a5,-24(s0)
    1b8c:	00379793          	slli	a5,a5,0x3
    1b90:	00f707b3          	add	a5,a4,a5
    1b94:	0007a703          	lw	a4,0(a5)
    1b98:	02b00793          	li	a5,43
    1b9c:	02f71c63          	bne	a4,a5,1bd4 <pre_process+0x70>
    1ba0:	fef44783          	lbu	a5,-17(s0)
    1ba4:	02078263          	beqz	a5,1bc8 <pre_process+0x64>
    1ba8:	000fe717          	auipc	a4,0xfe
    1bac:	6f870713          	addi	a4,a4,1784 # 1002a0 <tokens>
    1bb0:	fe842783          	lw	a5,-24(s0)
    1bb4:	00379793          	slli	a5,a5,0x3
    1bb8:	00f707b3          	add	a5,a4,a5
    1bbc:	00300713          	li	a4,3
    1bc0:	00e7a023          	sw	a4,0(a5)
    1bc4:	0f00006f          	j	1cb4 <pre_process+0x150>
    1bc8:	00100793          	li	a5,1
    1bcc:	fef407a3          	sb	a5,-17(s0)
    1bd0:	0e40006f          	j	1cb4 <pre_process+0x150>
    1bd4:	000fe717          	auipc	a4,0xfe
    1bd8:	6cc70713          	addi	a4,a4,1740 # 1002a0 <tokens>
    1bdc:	fe842783          	lw	a5,-24(s0)
    1be0:	00379793          	slli	a5,a5,0x3
    1be4:	00f707b3          	add	a5,a4,a5
    1be8:	0007a703          	lw	a4,0(a5)
    1bec:	02d00793          	li	a5,45
    1bf0:	02f71c63          	bne	a4,a5,1c28 <pre_process+0xc4>
    1bf4:	fef44783          	lbu	a5,-17(s0)
    1bf8:	02078263          	beqz	a5,1c1c <pre_process+0xb8>
    1bfc:	000fe717          	auipc	a4,0xfe
    1c00:	6a470713          	addi	a4,a4,1700 # 1002a0 <tokens>
    1c04:	fe842783          	lw	a5,-24(s0)
    1c08:	00379793          	slli	a5,a5,0x3
    1c0c:	00f707b3          	add	a5,a4,a5
    1c10:	00400713          	li	a4,4
    1c14:	00e7a023          	sw	a4,0(a5)
    1c18:	09c0006f          	j	1cb4 <pre_process+0x150>
    1c1c:	00100793          	li	a5,1
    1c20:	fef407a3          	sb	a5,-17(s0)
    1c24:	0900006f          	j	1cb4 <pre_process+0x150>
    1c28:	000fe717          	auipc	a4,0xfe
    1c2c:	67870713          	addi	a4,a4,1656 # 1002a0 <tokens>
    1c30:	fe842783          	lw	a5,-24(s0)
    1c34:	00379793          	slli	a5,a5,0x3
    1c38:	00f707b3          	add	a5,a4,a5
    1c3c:	0007a703          	lw	a4,0(a5)
    1c40:	02f00793          	li	a5,47
    1c44:	06f70063          	beq	a4,a5,1ca4 <pre_process+0x140>
    1c48:	000fe717          	auipc	a4,0xfe
    1c4c:	65870713          	addi	a4,a4,1624 # 1002a0 <tokens>
    1c50:	fe842783          	lw	a5,-24(s0)
    1c54:	00379793          	slli	a5,a5,0x3
    1c58:	00f707b3          	add	a5,a4,a5
    1c5c:	0007a703          	lw	a4,0(a5)
    1c60:	02800793          	li	a5,40
    1c64:	04f70063          	beq	a4,a5,1ca4 <pre_process+0x140>
    1c68:	000fe717          	auipc	a4,0xfe
    1c6c:	63870713          	addi	a4,a4,1592 # 1002a0 <tokens>
    1c70:	fe842783          	lw	a5,-24(s0)
    1c74:	00379793          	slli	a5,a5,0x3
    1c78:	00f707b3          	add	a5,a4,a5
    1c7c:	0007a783          	lw	a5,0(a5)
    1c80:	02078263          	beqz	a5,1ca4 <pre_process+0x140>
    1c84:	000fe717          	auipc	a4,0xfe
    1c88:	61c70713          	addi	a4,a4,1564 # 1002a0 <tokens>
    1c8c:	fe842783          	lw	a5,-24(s0)
    1c90:	00379793          	slli	a5,a5,0x3
    1c94:	00f707b3          	add	a5,a4,a5
    1c98:	0007a703          	lw	a4,0(a5)
    1c9c:	00100793          	li	a5,1
    1ca0:	00f71863          	bne	a4,a5,1cb0 <pre_process+0x14c>
    1ca4:	00100793          	li	a5,1
    1ca8:	fef407a3          	sb	a5,-17(s0)
    1cac:	0080006f          	j	1cb4 <pre_process+0x150>
    1cb0:	fe0407a3          	sb	zero,-17(s0)
    1cb4:	fe842783          	lw	a5,-24(s0)
    1cb8:	00178793          	addi	a5,a5,1
    1cbc:	fef42423          	sw	a5,-24(s0)
    1cc0:	000fe797          	auipc	a5,0xfe
    1cc4:	70078793          	addi	a5,a5,1792 # 1003c0 <nr_token>
    1cc8:	0007a783          	lw	a5,0(a5)
    1ccc:	fe842703          	lw	a4,-24(s0)
    1cd0:	eaf748e3          	blt	a4,a5,1b80 <pre_process+0x1c>
    1cd4:	00000013          	nop
    1cd8:	00000013          	nop
    1cdc:	01c12403          	lw	s0,28(sp)
    1ce0:	02010113          	addi	sp,sp,32
    1ce4:	00008067          	ret

00001ce8 <check_parentheses>:
    1ce8:	fd010113          	addi	sp,sp,-48
    1cec:	02812623          	sw	s0,44(sp)
    1cf0:	03010413          	addi	s0,sp,48
    1cf4:	fca42e23          	sw	a0,-36(s0)
    1cf8:	fcb42c23          	sw	a1,-40(s0)
    1cfc:	000fe717          	auipc	a4,0xfe
    1d00:	5a470713          	addi	a4,a4,1444 # 1002a0 <tokens>
    1d04:	fdc42783          	lw	a5,-36(s0)
    1d08:	00379793          	slli	a5,a5,0x3
    1d0c:	00f707b3          	add	a5,a4,a5
    1d10:	0007a703          	lw	a4,0(a5)
    1d14:	02800793          	li	a5,40
    1d18:	02f71263          	bne	a4,a5,1d3c <check_parentheses+0x54>
    1d1c:	000fe717          	auipc	a4,0xfe
    1d20:	58470713          	addi	a4,a4,1412 # 1002a0 <tokens>
    1d24:	fd842783          	lw	a5,-40(s0)
    1d28:	00379793          	slli	a5,a5,0x3
    1d2c:	00f707b3          	add	a5,a4,a5
    1d30:	0007a703          	lw	a4,0(a5)
    1d34:	02900793          	li	a5,41
    1d38:	00f70663          	beq	a4,a5,1d44 <check_parentheses+0x5c>
    1d3c:	00000793          	li	a5,0
    1d40:	0a40006f          	j	1de4 <check_parentheses+0xfc>
    1d44:	fe042623          	sw	zero,-20(s0)
    1d48:	fdc42783          	lw	a5,-36(s0)
    1d4c:	fef42423          	sw	a5,-24(s0)
    1d50:	07c0006f          	j	1dcc <check_parentheses+0xe4>
    1d54:	fec42783          	lw	a5,-20(s0)
    1d58:	0007d663          	bgez	a5,1d64 <check_parentheses+0x7c>
    1d5c:	00000793          	li	a5,0
    1d60:	0840006f          	j	1de4 <check_parentheses+0xfc>
    1d64:	000fe717          	auipc	a4,0xfe
    1d68:	53c70713          	addi	a4,a4,1340 # 1002a0 <tokens>
    1d6c:	fe842783          	lw	a5,-24(s0)
    1d70:	00379793          	slli	a5,a5,0x3
    1d74:	00f707b3          	add	a5,a4,a5
    1d78:	0007a703          	lw	a4,0(a5)
    1d7c:	02800793          	li	a5,40
    1d80:	00f71a63          	bne	a4,a5,1d94 <check_parentheses+0xac>
    1d84:	fec42783          	lw	a5,-20(s0)
    1d88:	00178793          	addi	a5,a5,1
    1d8c:	fef42623          	sw	a5,-20(s0)
    1d90:	0300006f          	j	1dc0 <check_parentheses+0xd8>
    1d94:	000fe717          	auipc	a4,0xfe
    1d98:	50c70713          	addi	a4,a4,1292 # 1002a0 <tokens>
    1d9c:	fe842783          	lw	a5,-24(s0)
    1da0:	00379793          	slli	a5,a5,0x3
    1da4:	00f707b3          	add	a5,a4,a5
    1da8:	0007a703          	lw	a4,0(a5)
    1dac:	02900793          	li	a5,41
    1db0:	00f71863          	bne	a4,a5,1dc0 <check_parentheses+0xd8>
    1db4:	fec42783          	lw	a5,-20(s0)
    1db8:	fff78793          	addi	a5,a5,-1
    1dbc:	fef42623          	sw	a5,-20(s0)
    1dc0:	fe842783          	lw	a5,-24(s0)
    1dc4:	00178793          	addi	a5,a5,1
    1dc8:	fef42423          	sw	a5,-24(s0)
    1dcc:	fe842703          	lw	a4,-24(s0)
    1dd0:	fd842783          	lw	a5,-40(s0)
    1dd4:	f8e7d0e3          	bge	a5,a4,1d54 <check_parentheses+0x6c>
    1dd8:	fec42783          	lw	a5,-20(s0)
    1ddc:	0017b793          	seqz	a5,a5
    1de0:	0ff7f793          	andi	a5,a5,255
    1de4:	00078513          	mv	a0,a5
    1de8:	02c12403          	lw	s0,44(sp)
    1dec:	03010113          	addi	sp,sp,48
    1df0:	00008067          	ret

00001df4 <priority>:
    1df4:	fe010113          	addi	sp,sp,-32
    1df8:	00812e23          	sw	s0,28(sp)
    1dfc:	02010413          	addi	s0,sp,32
    1e00:	00050793          	mv	a5,a0
    1e04:	fef407a3          	sb	a5,-17(s0)
    1e08:	fef44783          	lbu	a5,-17(s0)
    1e0c:	02f00713          	li	a4,47
    1e10:	04f76463          	bltu	a4,a5,1e58 <priority+0x64>
    1e14:	00279713          	slli	a4,a5,0x2
    1e18:	000fe797          	auipc	a5,0xfe
    1e1c:	2f078793          	addi	a5,a5,752 # 100108 <_etext+0xfdadc>
    1e20:	00f707b3          	add	a5,a4,a5
    1e24:	0007a703          	lw	a4,0(a5)
    1e28:	000fe797          	auipc	a5,0xfe
    1e2c:	2e078793          	addi	a5,a5,736 # 100108 <_etext+0xfdadc>
    1e30:	00f707b3          	add	a5,a4,a5
    1e34:	00078067          	jr	a5
    1e38:	00a00793          	li	a5,10
    1e3c:	0200006f          	j	1e5c <priority+0x68>
    1e40:	00b00793          	li	a5,11
    1e44:	0180006f          	j	1e5c <priority+0x68>
    1e48:	00c00793          	li	a5,12
    1e4c:	0100006f          	j	1e5c <priority+0x68>
    1e50:	00e00793          	li	a5,14
    1e54:	0080006f          	j	1e5c <priority+0x68>
    1e58:	06400793          	li	a5,100
    1e5c:	00078513          	mv	a0,a5
    1e60:	01c12403          	lw	s0,28(sp)
    1e64:	02010113          	addi	sp,sp,32
    1e68:	00008067          	ret

00001e6c <find_match_parentheses>:
    1e6c:	fd010113          	addi	sp,sp,-48
    1e70:	02112623          	sw	ra,44(sp)
    1e74:	02812423          	sw	s0,40(sp)
    1e78:	03010413          	addi	s0,sp,48
    1e7c:	fca42e23          	sw	a0,-36(s0)
    1e80:	fcb42c23          	sw	a1,-40(s0)
    1e84:	fdc42783          	lw	a5,-36(s0)
    1e88:	00178793          	addi	a5,a5,1
    1e8c:	fef42623          	sw	a5,-20(s0)
    1e90:	02c0006f          	j	1ebc <find_match_parentheses+0x50>
    1e94:	fec42583          	lw	a1,-20(s0)
    1e98:	fdc42503          	lw	a0,-36(s0)
    1e9c:	e4dff0ef          	jal	ra,1ce8 <check_parentheses>
    1ea0:	00050793          	mv	a5,a0
    1ea4:	00078663          	beqz	a5,1eb0 <find_match_parentheses+0x44>
    1ea8:	fec42783          	lw	a5,-20(s0)
    1eac:	0200006f          	j	1ecc <find_match_parentheses+0x60>
    1eb0:	fec42783          	lw	a5,-20(s0)
    1eb4:	00178793          	addi	a5,a5,1
    1eb8:	fef42623          	sw	a5,-20(s0)
    1ebc:	fec42703          	lw	a4,-20(s0)
    1ec0:	fd842783          	lw	a5,-40(s0)
    1ec4:	fce7d8e3          	bge	a5,a4,1e94 <find_match_parentheses+0x28>
    1ec8:	fff00793          	li	a5,-1
    1ecc:	00078513          	mv	a0,a5
    1ed0:	02c12083          	lw	ra,44(sp)
    1ed4:	02812403          	lw	s0,40(sp)
    1ed8:	03010113          	addi	sp,sp,48
    1edc:	00008067          	ret

00001ee0 <is_operator>:
    1ee0:	fe010113          	addi	sp,sp,-32
    1ee4:	00812e23          	sw	s0,28(sp)
    1ee8:	02010413          	addi	s0,sp,32
    1eec:	00050793          	mv	a5,a0
    1ef0:	fef407a3          	sb	a5,-17(s0)
    1ef4:	fef44703          	lbu	a4,-17(s0)
    1ef8:	02b00793          	li	a5,43
    1efc:	0cf70663          	beq	a4,a5,1fc8 <is_operator+0xe8>
    1f00:	fef44703          	lbu	a4,-17(s0)
    1f04:	02d00793          	li	a5,45
    1f08:	0cf70063          	beq	a4,a5,1fc8 <is_operator+0xe8>
    1f0c:	fef44703          	lbu	a4,-17(s0)
    1f10:	02f00793          	li	a5,47
    1f14:	0af70a63          	beq	a4,a5,1fc8 <is_operator+0xe8>
    1f18:	fef44703          	lbu	a4,-17(s0)
    1f1c:	02a00793          	li	a5,42
    1f20:	0af70463          	beq	a4,a5,1fc8 <is_operator+0xe8>
    1f24:	fef44703          	lbu	a4,-17(s0)
    1f28:	00400793          	li	a5,4
    1f2c:	08f70e63          	beq	a4,a5,1fc8 <is_operator+0xe8>
    1f30:	fef44703          	lbu	a4,-17(s0)
    1f34:	00300793          	li	a5,3
    1f38:	08f70863          	beq	a4,a5,1fc8 <is_operator+0xe8>
    1f3c:	fef44783          	lbu	a5,-17(s0)
    1f40:	08078463          	beqz	a5,1fc8 <is_operator+0xe8>
    1f44:	fef44703          	lbu	a4,-17(s0)
    1f48:	00100793          	li	a5,1
    1f4c:	06f70e63          	beq	a4,a5,1fc8 <is_operator+0xe8>
    1f50:	fef44703          	lbu	a4,-17(s0)
    1f54:	00600793          	li	a5,6
    1f58:	06f70863          	beq	a4,a5,1fc8 <is_operator+0xe8>
    1f5c:	fef44703          	lbu	a4,-17(s0)
    1f60:	00500793          	li	a5,5
    1f64:	06f70263          	beq	a4,a5,1fc8 <is_operator+0xe8>
    1f68:	fef44703          	lbu	a4,-17(s0)
    1f6c:	00800793          	li	a5,8
    1f70:	04f70c63          	beq	a4,a5,1fc8 <is_operator+0xe8>
    1f74:	fef44703          	lbu	a4,-17(s0)
    1f78:	00700793          	li	a5,7
    1f7c:	04f70663          	beq	a4,a5,1fc8 <is_operator+0xe8>
    1f80:	fef44703          	lbu	a4,-17(s0)
    1f84:	00900793          	li	a5,9
    1f88:	04f70063          	beq	a4,a5,1fc8 <is_operator+0xe8>
    1f8c:	fef44703          	lbu	a4,-17(s0)
    1f90:	00b00793          	li	a5,11
    1f94:	02f70a63          	beq	a4,a5,1fc8 <is_operator+0xe8>
    1f98:	fef44703          	lbu	a4,-17(s0)
    1f9c:	00a00793          	li	a5,10
    1fa0:	02f70463          	beq	a4,a5,1fc8 <is_operator+0xe8>
    1fa4:	fef44703          	lbu	a4,-17(s0)
    1fa8:	00c00793          	li	a5,12
    1fac:	00f70e63          	beq	a4,a5,1fc8 <is_operator+0xe8>
    1fb0:	fef44703          	lbu	a4,-17(s0)
    1fb4:	00d00793          	li	a5,13
    1fb8:	00f70863          	beq	a4,a5,1fc8 <is_operator+0xe8>
    1fbc:	fef44703          	lbu	a4,-17(s0)
    1fc0:	00e00793          	li	a5,14
    1fc4:	00f71663          	bne	a4,a5,1fd0 <is_operator+0xf0>
    1fc8:	00100793          	li	a5,1
    1fcc:	0080006f          	j	1fd4 <is_operator+0xf4>
    1fd0:	00000793          	li	a5,0
    1fd4:	0ff7f793          	andi	a5,a5,255
    1fd8:	00078513          	mv	a0,a5
    1fdc:	01c12403          	lw	s0,28(sp)
    1fe0:	02010113          	addi	sp,sp,32
    1fe4:	00008067          	ret

00001fe8 <dominant_operator>:
    1fe8:	fd010113          	addi	sp,sp,-48
    1fec:	02112623          	sw	ra,44(sp)
    1ff0:	02812423          	sw	s0,40(sp)
    1ff4:	02912223          	sw	s1,36(sp)
    1ff8:	03010413          	addi	s0,sp,48
    1ffc:	fca42e23          	sw	a0,-36(s0)
    2000:	fcb42c23          	sw	a1,-40(s0)
    2004:	fff00793          	li	a5,-1
    2008:	fef42623          	sw	a5,-20(s0)
    200c:	fdc42783          	lw	a5,-36(s0)
    2010:	fef42423          	sw	a5,-24(s0)
    2014:	0f40006f          	j	2108 <dominant_operator+0x120>
    2018:	000fe717          	auipc	a4,0xfe
    201c:	28870713          	addi	a4,a4,648 # 1002a0 <tokens>
    2020:	fe842783          	lw	a5,-24(s0)
    2024:	00379793          	slli	a5,a5,0x3
    2028:	00f707b3          	add	a5,a4,a5
    202c:	0007a703          	lw	a4,0(a5)
    2030:	02800793          	li	a5,40
    2034:	00f71a63          	bne	a4,a5,2048 <dominant_operator+0x60>
    2038:	fd842583          	lw	a1,-40(s0)
    203c:	fe842503          	lw	a0,-24(s0)
    2040:	e2dff0ef          	jal	ra,1e6c <find_match_parentheses>
    2044:	fea42423          	sw	a0,-24(s0)
    2048:	000fe717          	auipc	a4,0xfe
    204c:	25870713          	addi	a4,a4,600 # 1002a0 <tokens>
    2050:	fe842783          	lw	a5,-24(s0)
    2054:	00379793          	slli	a5,a5,0x3
    2058:	00f707b3          	add	a5,a4,a5
    205c:	0007a783          	lw	a5,0(a5)
    2060:	0ff7f793          	andi	a5,a5,255
    2064:	00078513          	mv	a0,a5
    2068:	e79ff0ef          	jal	ra,1ee0 <is_operator>
    206c:	00050793          	mv	a5,a0
    2070:	08078663          	beqz	a5,20fc <dominant_operator+0x114>
    2074:	fec42703          	lw	a4,-20(s0)
    2078:	fff00793          	li	a5,-1
    207c:	06f70c63          	beq	a4,a5,20f4 <dominant_operator+0x10c>
    2080:	000fe717          	auipc	a4,0xfe
    2084:	22070713          	addi	a4,a4,544 # 1002a0 <tokens>
    2088:	fec42783          	lw	a5,-20(s0)
    208c:	00379793          	slli	a5,a5,0x3
    2090:	00f707b3          	add	a5,a4,a5
    2094:	0007a783          	lw	a5,0(a5)
    2098:	0ff7f793          	andi	a5,a5,255
    209c:	00078513          	mv	a0,a5
    20a0:	d55ff0ef          	jal	ra,1df4 <priority>
    20a4:	00050493          	mv	s1,a0
    20a8:	000fe717          	auipc	a4,0xfe
    20ac:	1f870713          	addi	a4,a4,504 # 1002a0 <tokens>
    20b0:	fe842783          	lw	a5,-24(s0)
    20b4:	00379793          	slli	a5,a5,0x3
    20b8:	00f707b3          	add	a5,a4,a5
    20bc:	0007a783          	lw	a5,0(a5)
    20c0:	0ff7f793          	andi	a5,a5,255
    20c4:	00078513          	mv	a0,a5
    20c8:	d2dff0ef          	jal	ra,1df4 <priority>
    20cc:	00050793          	mv	a5,a0
    20d0:	02f4e663          	bltu	s1,a5,20fc <dominant_operator+0x114>
    20d4:	fec42503          	lw	a0,-20(s0)
    20d8:	9fdff0ef          	jal	ra,1ad4 <is_unary>
    20dc:	00050793          	mv	a5,a0
    20e0:	00078a63          	beqz	a5,20f4 <dominant_operator+0x10c>
    20e4:	fe842503          	lw	a0,-24(s0)
    20e8:	9edff0ef          	jal	ra,1ad4 <is_unary>
    20ec:	00050793          	mv	a5,a0
    20f0:	00079663          	bnez	a5,20fc <dominant_operator+0x114>
    20f4:	fe842783          	lw	a5,-24(s0)
    20f8:	fef42623          	sw	a5,-20(s0)
    20fc:	fe842783          	lw	a5,-24(s0)
    2100:	00178793          	addi	a5,a5,1
    2104:	fef42423          	sw	a5,-24(s0)
    2108:	fe842703          	lw	a4,-24(s0)
    210c:	fd842783          	lw	a5,-40(s0)
    2110:	f0e7d4e3          	bge	a5,a4,2018 <dominant_operator+0x30>
    2114:	fec42783          	lw	a5,-20(s0)
    2118:	00078513          	mv	a0,a5
    211c:	02c12083          	lw	ra,44(sp)
    2120:	02812403          	lw	s0,40(sp)
    2124:	02412483          	lw	s1,36(sp)
    2128:	03010113          	addi	sp,sp,48
    212c:	00008067          	ret

00002130 <eval>:
    2130:	fc010113          	addi	sp,sp,-64
    2134:	02112e23          	sw	ra,60(sp)
    2138:	02812c23          	sw	s0,56(sp)
    213c:	04010413          	addi	s0,sp,64
    2140:	fca42623          	sw	a0,-52(s0)
    2144:	fcb42423          	sw	a1,-56(s0)
    2148:	fcc42223          	sw	a2,-60(s0)
    214c:	fff00793          	li	a5,-1
    2150:	fef42623          	sw	a5,-20(s0)
    2154:	fc442783          	lw	a5,-60(s0)
    2158:	00100713          	li	a4,1
    215c:	00e78023          	sb	a4,0(a5)
    2160:	fcc42703          	lw	a4,-52(s0)
    2164:	fc842783          	lw	a5,-56(s0)
    2168:	00e7d863          	bge	a5,a4,2178 <eval+0x48>
    216c:	fc442783          	lw	a5,-60(s0)
    2170:	00078023          	sb	zero,0(a5)
    2174:	3c80006f          	j	253c <eval+0x40c>
    2178:	fcc42703          	lw	a4,-52(s0)
    217c:	fc842783          	lw	a5,-56(s0)
    2180:	04f71863          	bne	a4,a5,21d0 <eval+0xa0>
    2184:	000fe717          	auipc	a4,0xfe
    2188:	11c70713          	addi	a4,a4,284 # 1002a0 <tokens>
    218c:	fcc42783          	lw	a5,-52(s0)
    2190:	00379793          	slli	a5,a5,0x3
    2194:	00f707b3          	add	a5,a4,a5
    2198:	0007a703          	lw	a4,0(a5)
    219c:	00200793          	li	a5,2
    21a0:	02f71263          	bne	a4,a5,21c4 <eval+0x94>
    21a4:	000fe717          	auipc	a4,0xfe
    21a8:	0fc70713          	addi	a4,a4,252 # 1002a0 <tokens>
    21ac:	fcc42783          	lw	a5,-52(s0)
    21b0:	00379793          	slli	a5,a5,0x3
    21b4:	00f707b3          	add	a5,a4,a5
    21b8:	0047a783          	lw	a5,4(a5)
    21bc:	fef42623          	sw	a5,-20(s0)
    21c0:	37c0006f          	j	253c <eval+0x40c>
    21c4:	fc442783          	lw	a5,-60(s0)
    21c8:	00078023          	sb	zero,0(a5)
    21cc:	3700006f          	j	253c <eval+0x40c>
    21d0:	fc842583          	lw	a1,-56(s0)
    21d4:	fcc42503          	lw	a0,-52(s0)
    21d8:	b11ff0ef          	jal	ra,1ce8 <check_parentheses>
    21dc:	00050793          	mv	a5,a0
    21e0:	02078663          	beqz	a5,220c <eval+0xdc>
    21e4:	fcc42783          	lw	a5,-52(s0)
    21e8:	00178713          	addi	a4,a5,1
    21ec:	fc842783          	lw	a5,-56(s0)
    21f0:	fff78793          	addi	a5,a5,-1
    21f4:	fc442603          	lw	a2,-60(s0)
    21f8:	00078593          	mv	a1,a5
    21fc:	00070513          	mv	a0,a4
    2200:	f31ff0ef          	jal	ra,2130 <eval>
    2204:	00050793          	mv	a5,a0
    2208:	3380006f          	j	2540 <eval+0x410>
    220c:	fc842583          	lw	a1,-56(s0)
    2210:	fcc42503          	lw	a0,-52(s0)
    2214:	dd5ff0ef          	jal	ra,1fe8 <dominant_operator>
    2218:	fea42423          	sw	a0,-24(s0)
    221c:	fe842703          	lw	a4,-24(s0)
    2220:	fff00793          	li	a5,-1
    2224:	00f71863          	bne	a4,a5,2234 <eval+0x104>
    2228:	fc442783          	lw	a5,-60(s0)
    222c:	00078023          	sb	zero,0(a5)
    2230:	30c0006f          	j	253c <eval+0x40c>
    2234:	fe842703          	lw	a4,-24(s0)
    2238:	fcc42783          	lw	a5,-52(s0)
    223c:	0af71e63          	bne	a4,a5,22f8 <eval+0x1c8>
    2240:	fe842503          	lw	a0,-24(s0)
    2244:	891ff0ef          	jal	ra,1ad4 <is_unary>
    2248:	00050793          	mv	a5,a0
    224c:	0a078663          	beqz	a5,22f8 <eval+0x1c8>
    2250:	fe842783          	lw	a5,-24(s0)
    2254:	00178793          	addi	a5,a5,1
    2258:	fc442603          	lw	a2,-60(s0)
    225c:	fc842583          	lw	a1,-56(s0)
    2260:	00078513          	mv	a0,a5
    2264:	ecdff0ef          	jal	ra,2130 <eval>
    2268:	fea42223          	sw	a0,-28(s0)
    226c:	fc442783          	lw	a5,-60(s0)
    2270:	0007c783          	lbu	a5,0(a5)
    2274:	06078e63          	beqz	a5,22f0 <eval+0x1c0>
    2278:	000fe717          	auipc	a4,0xfe
    227c:	02870713          	addi	a4,a4,40 # 1002a0 <tokens>
    2280:	fe842783          	lw	a5,-24(s0)
    2284:	00379793          	slli	a5,a5,0x3
    2288:	00f707b3          	add	a5,a4,a5
    228c:	0007a783          	lw	a5,0(a5)
    2290:	00b00713          	li	a4,11
    2294:	02e78e63          	beq	a5,a4,22d0 <eval+0x1a0>
    2298:	00b00713          	li	a4,11
    229c:	04f74463          	blt	a4,a5,22e4 <eval+0x1b4>
    22a0:	00300713          	li	a4,3
    22a4:	00e78863          	beq	a5,a4,22b4 <eval+0x184>
    22a8:	00400713          	li	a4,4
    22ac:	00e78a63          	beq	a5,a4,22c0 <eval+0x190>
    22b0:	0340006f          	j	22e4 <eval+0x1b4>
    22b4:	fe442783          	lw	a5,-28(s0)
    22b8:	fef42623          	sw	a5,-20(s0)
    22bc:	0380006f          	j	22f4 <eval+0x1c4>
    22c0:	fe442783          	lw	a5,-28(s0)
    22c4:	40f007b3          	neg	a5,a5
    22c8:	fef42623          	sw	a5,-20(s0)
    22cc:	0280006f          	j	22f4 <eval+0x1c4>
    22d0:	fec42783          	lw	a5,-20(s0)
    22d4:	0017b793          	seqz	a5,a5
    22d8:	0ff7f793          	andi	a5,a5,255
    22dc:	fef42623          	sw	a5,-20(s0)
    22e0:	0140006f          	j	22f4 <eval+0x1c4>
    22e4:	fc442783          	lw	a5,-60(s0)
    22e8:	00078023          	sb	zero,0(a5)
    22ec:	2500006f          	j	253c <eval+0x40c>
    22f0:	00000013          	nop
    22f4:	2480006f          	j	253c <eval+0x40c>
    22f8:	fe842783          	lw	a5,-24(s0)
    22fc:	fff78793          	addi	a5,a5,-1
    2300:	fc442603          	lw	a2,-60(s0)
    2304:	00078593          	mv	a1,a5
    2308:	fcc42503          	lw	a0,-52(s0)
    230c:	e25ff0ef          	jal	ra,2130 <eval>
    2310:	fea42023          	sw	a0,-32(s0)
    2314:	fe842783          	lw	a5,-24(s0)
    2318:	00178793          	addi	a5,a5,1
    231c:	fdb40713          	addi	a4,s0,-37
    2320:	00070613          	mv	a2,a4
    2324:	fc842583          	lw	a1,-56(s0)
    2328:	00078513          	mv	a0,a5
    232c:	e05ff0ef          	jal	ra,2130 <eval>
    2330:	fca42e23          	sw	a0,-36(s0)
    2334:	fc442783          	lw	a5,-60(s0)
    2338:	0007c703          	lbu	a4,0(a5)
    233c:	fdb44783          	lbu	a5,-37(s0)
    2340:	00f777b3          	and	a5,a4,a5
    2344:	0ff7f713          	andi	a4,a5,255
    2348:	fc442783          	lw	a5,-60(s0)
    234c:	00e78023          	sb	a4,0(a5)
    2350:	fc442783          	lw	a5,-60(s0)
    2354:	0007c783          	lbu	a5,0(a5)
    2358:	1e078063          	beqz	a5,2538 <eval+0x408>
    235c:	000fe717          	auipc	a4,0xfe
    2360:	f4470713          	addi	a4,a4,-188 # 1002a0 <tokens>
    2364:	fe842783          	lw	a5,-24(s0)
    2368:	00379793          	slli	a5,a5,0x3
    236c:	00f707b3          	add	a5,a4,a5
    2370:	0007a783          	lw	a5,0(a5)
    2374:	02f00713          	li	a4,47
    2378:	1af76a63          	bltu	a4,a5,252c <eval+0x3fc>
    237c:	00279713          	slli	a4,a5,0x2
    2380:	000fe797          	auipc	a5,0xfe
    2384:	e4878793          	addi	a5,a5,-440 # 1001c8 <_etext+0xfdb9c>
    2388:	00f707b3          	add	a5,a4,a5
    238c:	0007a703          	lw	a4,0(a5)
    2390:	000fe797          	auipc	a5,0xfe
    2394:	e3878793          	addi	a5,a5,-456 # 1001c8 <_etext+0xfdb9c>
    2398:	00f707b3          	add	a5,a4,a5
    239c:	00078067          	jr	a5
    23a0:	fe042703          	lw	a4,-32(s0)
    23a4:	fdc42783          	lw	a5,-36(s0)
    23a8:	00f707b3          	add	a5,a4,a5
    23ac:	fef42623          	sw	a5,-20(s0)
    23b0:	18c0006f          	j	253c <eval+0x40c>
    23b4:	fe042703          	lw	a4,-32(s0)
    23b8:	fdc42783          	lw	a5,-36(s0)
    23bc:	40f707b3          	sub	a5,a4,a5
    23c0:	fef42623          	sw	a5,-20(s0)
    23c4:	1780006f          	j	253c <eval+0x40c>
    23c8:	fe042783          	lw	a5,-32(s0)
    23cc:	fdc42703          	lw	a4,-36(s0)
    23d0:	00070593          	mv	a1,a4
    23d4:	00078513          	mv	a0,a5
    23d8:	e59fe0ef          	jal	ra,1230 <__mulsi3>
    23dc:	00050793          	mv	a5,a0
    23e0:	fef42623          	sw	a5,-20(s0)
    23e4:	1580006f          	j	253c <eval+0x40c>
    23e8:	fe042783          	lw	a5,-32(s0)
    23ec:	fdc42703          	lw	a4,-36(s0)
    23f0:	00070593          	mv	a1,a4
    23f4:	00078513          	mv	a0,a5
    23f8:	f8dfe0ef          	jal	ra,1384 <__udivsi3>
    23fc:	00050793          	mv	a5,a0
    2400:	fef42623          	sw	a5,-20(s0)
    2404:	1380006f          	j	253c <eval+0x40c>
    2408:	fe042703          	lw	a4,-32(s0)
    240c:	fdc42783          	lw	a5,-36(s0)
    2410:	40f707b3          	sub	a5,a4,a5
    2414:	0017b793          	seqz	a5,a5
    2418:	0ff7f793          	andi	a5,a5,255
    241c:	fef42623          	sw	a5,-20(s0)
    2420:	11c0006f          	j	253c <eval+0x40c>
    2424:	fe042703          	lw	a4,-32(s0)
    2428:	fdc42783          	lw	a5,-36(s0)
    242c:	40f707b3          	sub	a5,a4,a5
    2430:	00f037b3          	snez	a5,a5
    2434:	0ff7f793          	andi	a5,a5,255
    2438:	fef42623          	sw	a5,-20(s0)
    243c:	1000006f          	j	253c <eval+0x40c>
    2440:	fe042703          	lw	a4,-32(s0)
    2444:	fdc42783          	lw	a5,-36(s0)
    2448:	00e7a7b3          	slt	a5,a5,a4
    244c:	0ff7f793          	andi	a5,a5,255
    2450:	fef42623          	sw	a5,-20(s0)
    2454:	0e80006f          	j	253c <eval+0x40c>
    2458:	fe042703          	lw	a4,-32(s0)
    245c:	fdc42783          	lw	a5,-36(s0)
    2460:	00f727b3          	slt	a5,a4,a5
    2464:	0ff7f793          	andi	a5,a5,255
    2468:	fef42623          	sw	a5,-20(s0)
    246c:	0d00006f          	j	253c <eval+0x40c>
    2470:	fe042703          	lw	a4,-32(s0)
    2474:	fdc42783          	lw	a5,-36(s0)
    2478:	00e7a7b3          	slt	a5,a5,a4
    247c:	0017c793          	xori	a5,a5,1
    2480:	0ff7f793          	andi	a5,a5,255
    2484:	fef42623          	sw	a5,-20(s0)
    2488:	0b40006f          	j	253c <eval+0x40c>
    248c:	fe042703          	lw	a4,-32(s0)
    2490:	fdc42783          	lw	a5,-36(s0)
    2494:	00f727b3          	slt	a5,a4,a5
    2498:	0017c793          	xori	a5,a5,1
    249c:	0ff7f793          	andi	a5,a5,255
    24a0:	fef42623          	sw	a5,-20(s0)
    24a4:	0980006f          	j	253c <eval+0x40c>
    24a8:	fe042783          	lw	a5,-32(s0)
    24ac:	00078a63          	beqz	a5,24c0 <eval+0x390>
    24b0:	fdc42783          	lw	a5,-36(s0)
    24b4:	00078663          	beqz	a5,24c0 <eval+0x390>
    24b8:	00100793          	li	a5,1
    24bc:	0080006f          	j	24c4 <eval+0x394>
    24c0:	00000793          	li	a5,0
    24c4:	fef42623          	sw	a5,-20(s0)
    24c8:	0740006f          	j	253c <eval+0x40c>
    24cc:	fe042783          	lw	a5,-32(s0)
    24d0:	00079663          	bnez	a5,24dc <eval+0x3ac>
    24d4:	fdc42783          	lw	a5,-36(s0)
    24d8:	00078663          	beqz	a5,24e4 <eval+0x3b4>
    24dc:	00100793          	li	a5,1
    24e0:	0080006f          	j	24e8 <eval+0x3b8>
    24e4:	00000793          	li	a5,0
    24e8:	fef42623          	sw	a5,-20(s0)
    24ec:	0500006f          	j	253c <eval+0x40c>
    24f0:	fe042703          	lw	a4,-32(s0)
    24f4:	fdc42783          	lw	a5,-36(s0)
    24f8:	00f777b3          	and	a5,a4,a5
    24fc:	fef42623          	sw	a5,-20(s0)
    2500:	03c0006f          	j	253c <eval+0x40c>
    2504:	fe042703          	lw	a4,-32(s0)
    2508:	fdc42783          	lw	a5,-36(s0)
    250c:	00f767b3          	or	a5,a4,a5
    2510:	fef42623          	sw	a5,-20(s0)
    2514:	0280006f          	j	253c <eval+0x40c>
    2518:	fe042703          	lw	a4,-32(s0)
    251c:	fdc42783          	lw	a5,-36(s0)
    2520:	00f747b3          	xor	a5,a4,a5
    2524:	fef42623          	sw	a5,-20(s0)
    2528:	0140006f          	j	253c <eval+0x40c>
    252c:	fc442783          	lw	a5,-60(s0)
    2530:	00078023          	sb	zero,0(a5)
    2534:	0080006f          	j	253c <eval+0x40c>
    2538:	00000013          	nop
    253c:	fec42783          	lw	a5,-20(s0)
    2540:	00078513          	mv	a0,a5
    2544:	03c12083          	lw	ra,60(sp)
    2548:	03812403          	lw	s0,56(sp)
    254c:	04010113          	addi	sp,sp,64
    2550:	00008067          	ret

00002554 <calc_expr>:
    2554:	fe010113          	addi	sp,sp,-32
    2558:	00112e23          	sw	ra,28(sp)
    255c:	00812c23          	sw	s0,24(sp)
    2560:	02010413          	addi	s0,sp,32
    2564:	fea42623          	sw	a0,-20(s0)
    2568:	feb42423          	sw	a1,-24(s0)
    256c:	fec42503          	lw	a0,-20(s0)
    2570:	ed1fe0ef          	jal	ra,1440 <make_token>
    2574:	00050793          	mv	a5,a0
    2578:	00079a63          	bnez	a5,258c <calc_expr+0x38>
    257c:	fe842783          	lw	a5,-24(s0)
    2580:	00078023          	sb	zero,0(a5)
    2584:	00000793          	li	a5,0
    2588:	02c0006f          	j	25b4 <calc_expr+0x60>
    258c:	dd8ff0ef          	jal	ra,1b64 <pre_process>
    2590:	000fe797          	auipc	a5,0xfe
    2594:	e3078793          	addi	a5,a5,-464 # 1003c0 <nr_token>
    2598:	0007a783          	lw	a5,0(a5)
    259c:	fff78793          	addi	a5,a5,-1
    25a0:	fe842603          	lw	a2,-24(s0)
    25a4:	00078593          	mv	a1,a5
    25a8:	00000513          	li	a0,0
    25ac:	b85ff0ef          	jal	ra,2130 <eval>
    25b0:	00050793          	mv	a5,a0
    25b4:	00078513          	mv	a0,a5
    25b8:	01c12083          	lw	ra,28(sp)
    25bc:	01812403          	lw	s0,24(sp)
    25c0:	02010113          	addi	sp,sp,32
    25c4:	00008067          	ret

000025c8 <int_handler_entrance>:
    25c8:	340f9ff3          	csrrw	t6,mscratch,t6
    25cc:	00000013          	nop
    25d0:	00000013          	nop
    25d4:	00afa023          	sw	a0,0(t6)
    25d8:	00bfa223          	sw	a1,4(t6)
    25dc:	00cfa423          	sw	a2,8(t6)
    25e0:	00dfa623          	sw	a3,12(t6)
    25e4:	00efa823          	sw	a4,16(t6)
    25e8:	00ffaa23          	sw	a5,20(t6)
    25ec:	010fac23          	sw	a6,24(t6)
    25f0:	011fae23          	sw	a7,28(t6)
    25f4:	021fa023          	sw	ra,32(t6)
    25f8:	34202573          	csrr	a0,mcause
    25fc:	aa8fe0ef          	jal	ra,8a4 <irq_handler>
    2600:	000fa503          	lw	a0,0(t6)
    2604:	004fa583          	lw	a1,4(t6)
    2608:	008fa603          	lw	a2,8(t6)
    260c:	00cfa683          	lw	a3,12(t6)
    2610:	010fa703          	lw	a4,16(t6)
    2614:	014fa783          	lw	a5,20(t6)
    2618:	018fa803          	lw	a6,24(t6)
    261c:	01cfa883          	lw	a7,28(t6)
    2620:	020fa083          	lw	ra,32(t6)
    2624:	340f9ff3          	csrrw	t6,mscratch,t6
    2628:	30200073          	mret
